	.section	__TEXT,__text,regular,pure_instructions
	.build_version macos, 10, 14
	.globl	_main                   ## -- Begin function main
	.p2align	4, 0x90
_main:                                  ## @main
Lfunc_begin0:
	.cfi_startproc
	.cfi_personality 155, ___gxx_personality_v0
	.cfi_lsda 16, Lexception0
## %bb.0:
	pushq	%rbp
	.cfi_def_cfa_offset 16
	.cfi_offset %rbp, -16
	movq	%rsp, %rbp
	.cfi_def_cfa_register %rbp
	subq	$240, %rsp
	movl	$0, -4(%rbp)
	movl	%edi, -8(%rbp)
	movq	%rsi, -16(%rbp)
	leaq	L_.str(%rip), %rsi
	leaq	-40(%rbp), %rdi
	callq	__ZNSt3__112basic_stringIcNS_11char_traitsIcEENS_9allocatorIcEEEC1INS_9nullptr_tEEEPKc
Ltmp0:
	leaq	-64(%rbp), %rdi
	movl	$1, %esi
	callq	__Z12drawTrianglei
Ltmp1:
	jmp	LBB0_1
LBB0_1:
	leaq	L_.str.1(%rip), %rsi
	leaq	-64(%rbp), %rdi
	callq	__ZNSt3__1eqIcNS_11char_traitsIcEENS_9allocatorIcEEEEbRKNS_12basic_stringIT_T0_T1_EEPKS6_
	movzbl	%al, %esi
Ltmp2:
	leaq	-40(%rbp), %rdi
	callq	__Z10assertTrueNSt3__112basic_stringIcNS_11char_traitsIcEENS_9allocatorIcEEEEb
Ltmp3:
	jmp	LBB0_2
LBB0_2:
Ltmp7:
	leaq	-64(%rbp), %rdi
	callq	__ZNSt3__112basic_stringIcNS_11char_traitsIcEENS_9allocatorIcEEED1Ev
Ltmp8:
	jmp	LBB0_3
LBB0_3:
	leaq	-40(%rbp), %rdi
	callq	__ZNSt3__112basic_stringIcNS_11char_traitsIcEENS_9allocatorIcEEED1Ev
	leaq	L_.str.2(%rip), %rsi
	leaq	-104(%rbp), %rdi
	callq	__ZNSt3__112basic_stringIcNS_11char_traitsIcEENS_9allocatorIcEEEC1INS_9nullptr_tEEEPKc
Ltmp12:
	leaq	-128(%rbp), %rdi
	movl	$2, %esi
	callq	__Z12drawTrianglei
Ltmp13:
	jmp	LBB0_4
LBB0_4:
	leaq	L_.str.3(%rip), %rsi
	leaq	-128(%rbp), %rdi
	callq	__ZNSt3__1eqIcNS_11char_traitsIcEENS_9allocatorIcEEEEbRKNS_12basic_stringIT_T0_T1_EEPKS6_
	movzbl	%al, %esi
Ltmp14:
	leaq	-104(%rbp), %rdi
	callq	__Z10assertTrueNSt3__112basic_stringIcNS_11char_traitsIcEENS_9allocatorIcEEEEb
Ltmp15:
	jmp	LBB0_5
LBB0_5:
Ltmp19:
	leaq	-128(%rbp), %rdi
	callq	__ZNSt3__112basic_stringIcNS_11char_traitsIcEENS_9allocatorIcEEED1Ev
Ltmp20:
	jmp	LBB0_6
LBB0_6:
	leaq	-104(%rbp), %rdi
	callq	__ZNSt3__112basic_stringIcNS_11char_traitsIcEENS_9allocatorIcEEED1Ev
	leaq	L_.str.4(%rip), %rsi
	leaq	-152(%rbp), %rdi
	callq	__ZNSt3__112basic_stringIcNS_11char_traitsIcEENS_9allocatorIcEEEC1INS_9nullptr_tEEEPKc
Ltmp24:
	leaq	-176(%rbp), %rdi
	movl	$3, %esi
	callq	__Z12drawTrianglei
Ltmp25:
	jmp	LBB0_7
LBB0_7:
	leaq	L_.str.5(%rip), %rsi
	leaq	-176(%rbp), %rdi
	callq	__ZNSt3__1eqIcNS_11char_traitsIcEENS_9allocatorIcEEEEbRKNS_12basic_stringIT_T0_T1_EEPKS6_
	movzbl	%al, %esi
Ltmp26:
	leaq	-152(%rbp), %rdi
	callq	__Z10assertTrueNSt3__112basic_stringIcNS_11char_traitsIcEENS_9allocatorIcEEEEb
Ltmp27:
	jmp	LBB0_8
LBB0_8:
Ltmp31:
	leaq	-176(%rbp), %rdi
	callq	__ZNSt3__112basic_stringIcNS_11char_traitsIcEENS_9allocatorIcEEED1Ev
Ltmp32:
	jmp	LBB0_9
LBB0_9:
	leaq	-152(%rbp), %rdi
	callq	__ZNSt3__112basic_stringIcNS_11char_traitsIcEENS_9allocatorIcEEED1Ev
	leaq	L_.str.6(%rip), %rsi
	leaq	-200(%rbp), %rdi
	callq	__ZNSt3__112basic_stringIcNS_11char_traitsIcEENS_9allocatorIcEEEC1INS_9nullptr_tEEEPKc
Ltmp36:
	leaq	-224(%rbp), %rdi
	movl	$5, %esi
	callq	__Z12drawTrianglei
Ltmp37:
	jmp	LBB0_10
LBB0_10:
	leaq	L_.str.7(%rip), %rsi
	leaq	-224(%rbp), %rdi
	callq	__ZNSt3__1eqIcNS_11char_traitsIcEENS_9allocatorIcEEEEbRKNS_12basic_stringIT_T0_T1_EEPKS6_
	movzbl	%al, %esi
Ltmp38:
	leaq	-200(%rbp), %rdi
	callq	__Z10assertTrueNSt3__112basic_stringIcNS_11char_traitsIcEENS_9allocatorIcEEEEb
Ltmp39:
	jmp	LBB0_11
LBB0_11:
Ltmp43:
	leaq	-224(%rbp), %rdi
	callq	__ZNSt3__112basic_stringIcNS_11char_traitsIcEENS_9allocatorIcEEED1Ev
Ltmp44:
	jmp	LBB0_12
LBB0_12:
	leaq	-200(%rbp), %rdi
	callq	__ZNSt3__112basic_stringIcNS_11char_traitsIcEENS_9allocatorIcEEED1Ev
	xorl	%eax, %eax
	addq	$240, %rsp
	popq	%rbp
	retq
LBB0_13:
Ltmp9:
	movl	%edx, %ecx
	movq	%rax, -72(%rbp)
	movl	%ecx, -76(%rbp)
	jmp	LBB0_16
LBB0_14:
Ltmp4:
	movl	%edx, %ecx
	movq	%rax, -72(%rbp)
	movl	%ecx, -76(%rbp)
Ltmp5:
	leaq	-64(%rbp), %rdi
	callq	__ZNSt3__112basic_stringIcNS_11char_traitsIcEENS_9allocatorIcEEED1Ev
Ltmp6:
	jmp	LBB0_15
LBB0_15:
	jmp	LBB0_16
LBB0_16:
Ltmp10:
	leaq	-40(%rbp), %rdi
	callq	__ZNSt3__112basic_stringIcNS_11char_traitsIcEENS_9allocatorIcEEED1Ev
Ltmp11:
	jmp	LBB0_17
LBB0_17:
	jmp	LBB0_33
LBB0_18:
Ltmp21:
	movl	%edx, %ecx
	movq	%rax, -72(%rbp)
	movl	%ecx, -76(%rbp)
	jmp	LBB0_21
LBB0_19:
Ltmp16:
	movl	%edx, %ecx
	movq	%rax, -72(%rbp)
	movl	%ecx, -76(%rbp)
Ltmp17:
	leaq	-128(%rbp), %rdi
	callq	__ZNSt3__112basic_stringIcNS_11char_traitsIcEENS_9allocatorIcEEED1Ev
Ltmp18:
	jmp	LBB0_20
LBB0_20:
	jmp	LBB0_21
LBB0_21:
Ltmp22:
	leaq	-104(%rbp), %rdi
	callq	__ZNSt3__112basic_stringIcNS_11char_traitsIcEENS_9allocatorIcEEED1Ev
Ltmp23:
	jmp	LBB0_22
LBB0_22:
	jmp	LBB0_33
LBB0_23:
Ltmp33:
	movl	%edx, %ecx
	movq	%rax, -72(%rbp)
	movl	%ecx, -76(%rbp)
	jmp	LBB0_26
LBB0_24:
Ltmp28:
	movl	%edx, %ecx
	movq	%rax, -72(%rbp)
	movl	%ecx, -76(%rbp)
Ltmp29:
	leaq	-176(%rbp), %rdi
	callq	__ZNSt3__112basic_stringIcNS_11char_traitsIcEENS_9allocatorIcEEED1Ev
Ltmp30:
	jmp	LBB0_25
LBB0_25:
	jmp	LBB0_26
LBB0_26:
Ltmp34:
	leaq	-152(%rbp), %rdi
	callq	__ZNSt3__112basic_stringIcNS_11char_traitsIcEENS_9allocatorIcEEED1Ev
Ltmp35:
	jmp	LBB0_27
LBB0_27:
	jmp	LBB0_33
LBB0_28:
Ltmp45:
	movl	%edx, %ecx
	movq	%rax, -72(%rbp)
	movl	%ecx, -76(%rbp)
	jmp	LBB0_31
LBB0_29:
Ltmp40:
	movl	%edx, %ecx
	movq	%rax, -72(%rbp)
	movl	%ecx, -76(%rbp)
Ltmp41:
	leaq	-224(%rbp), %rdi
	callq	__ZNSt3__112basic_stringIcNS_11char_traitsIcEENS_9allocatorIcEEED1Ev
Ltmp42:
	jmp	LBB0_30
LBB0_30:
	jmp	LBB0_31
LBB0_31:
Ltmp46:
	leaq	-200(%rbp), %rdi
	callq	__ZNSt3__112basic_stringIcNS_11char_traitsIcEENS_9allocatorIcEEED1Ev
Ltmp47:
	jmp	LBB0_32
LBB0_32:
	jmp	LBB0_33
LBB0_33:
	movq	-72(%rbp), %rdi
	callq	__Unwind_Resume
	ud2
LBB0_34:
Ltmp48:
	movq	%rax, %rdi
	movq	%rdx, -232(%rbp)        ## 8-byte Spill
	callq	___clang_call_terminate
Lfunc_end0:
	.cfi_endproc
	.section	__TEXT,__gcc_except_tab
	.p2align	2
GCC_except_table0:
Lexception0:
	.byte	255                     ## @LPStart Encoding = omit
	.byte	155                     ## @TType Encoding = indirect pcrel sdata4
	.uleb128 Lttbase0-Lttbaseref0
Lttbaseref0:
	.byte	1                       ## Call site Encoding = uleb128
	.uleb128 Lcst_end0-Lcst_begin0
Lcst_begin0:
	.uleb128 Lfunc_begin0-Lfunc_begin0 ## >> Call Site 1 <<
	.uleb128 Ltmp0-Lfunc_begin0     ##   Call between Lfunc_begin0 and Ltmp0
	.byte	0                       ##     has no landing pad
	.byte	0                       ##   On action: cleanup
	.uleb128 Ltmp0-Lfunc_begin0     ## >> Call Site 2 <<
	.uleb128 Ltmp1-Ltmp0            ##   Call between Ltmp0 and Ltmp1
	.uleb128 Ltmp9-Lfunc_begin0     ##     jumps to Ltmp9
	.byte	0                       ##   On action: cleanup
	.uleb128 Ltmp2-Lfunc_begin0     ## >> Call Site 3 <<
	.uleb128 Ltmp3-Ltmp2            ##   Call between Ltmp2 and Ltmp3
	.uleb128 Ltmp4-Lfunc_begin0     ##     jumps to Ltmp4
	.byte	0                       ##   On action: cleanup
	.uleb128 Ltmp7-Lfunc_begin0     ## >> Call Site 4 <<
	.uleb128 Ltmp8-Ltmp7            ##   Call between Ltmp7 and Ltmp8
	.uleb128 Ltmp9-Lfunc_begin0     ##     jumps to Ltmp9
	.byte	0                       ##   On action: cleanup
	.uleb128 Ltmp8-Lfunc_begin0     ## >> Call Site 5 <<
	.uleb128 Ltmp12-Ltmp8           ##   Call between Ltmp8 and Ltmp12
	.byte	0                       ##     has no landing pad
	.byte	0                       ##   On action: cleanup
	.uleb128 Ltmp12-Lfunc_begin0    ## >> Call Site 6 <<
	.uleb128 Ltmp13-Ltmp12          ##   Call between Ltmp12 and Ltmp13
	.uleb128 Ltmp21-Lfunc_begin0    ##     jumps to Ltmp21
	.byte	0                       ##   On action: cleanup
	.uleb128 Ltmp14-Lfunc_begin0    ## >> Call Site 7 <<
	.uleb128 Ltmp15-Ltmp14          ##   Call between Ltmp14 and Ltmp15
	.uleb128 Ltmp16-Lfunc_begin0    ##     jumps to Ltmp16
	.byte	0                       ##   On action: cleanup
	.uleb128 Ltmp19-Lfunc_begin0    ## >> Call Site 8 <<
	.uleb128 Ltmp20-Ltmp19          ##   Call between Ltmp19 and Ltmp20
	.uleb128 Ltmp21-Lfunc_begin0    ##     jumps to Ltmp21
	.byte	0                       ##   On action: cleanup
	.uleb128 Ltmp20-Lfunc_begin0    ## >> Call Site 9 <<
	.uleb128 Ltmp24-Ltmp20          ##   Call between Ltmp20 and Ltmp24
	.byte	0                       ##     has no landing pad
	.byte	0                       ##   On action: cleanup
	.uleb128 Ltmp24-Lfunc_begin0    ## >> Call Site 10 <<
	.uleb128 Ltmp25-Ltmp24          ##   Call between Ltmp24 and Ltmp25
	.uleb128 Ltmp33-Lfunc_begin0    ##     jumps to Ltmp33
	.byte	0                       ##   On action: cleanup
	.uleb128 Ltmp26-Lfunc_begin0    ## >> Call Site 11 <<
	.uleb128 Ltmp27-Ltmp26          ##   Call between Ltmp26 and Ltmp27
	.uleb128 Ltmp28-Lfunc_begin0    ##     jumps to Ltmp28
	.byte	0                       ##   On action: cleanup
	.uleb128 Ltmp31-Lfunc_begin0    ## >> Call Site 12 <<
	.uleb128 Ltmp32-Ltmp31          ##   Call between Ltmp31 and Ltmp32
	.uleb128 Ltmp33-Lfunc_begin0    ##     jumps to Ltmp33
	.byte	0                       ##   On action: cleanup
	.uleb128 Ltmp32-Lfunc_begin0    ## >> Call Site 13 <<
	.uleb128 Ltmp36-Ltmp32          ##   Call between Ltmp32 and Ltmp36
	.byte	0                       ##     has no landing pad
	.byte	0                       ##   On action: cleanup
	.uleb128 Ltmp36-Lfunc_begin0    ## >> Call Site 14 <<
	.uleb128 Ltmp37-Ltmp36          ##   Call between Ltmp36 and Ltmp37
	.uleb128 Ltmp45-Lfunc_begin0    ##     jumps to Ltmp45
	.byte	0                       ##   On action: cleanup
	.uleb128 Ltmp38-Lfunc_begin0    ## >> Call Site 15 <<
	.uleb128 Ltmp39-Ltmp38          ##   Call between Ltmp38 and Ltmp39
	.uleb128 Ltmp40-Lfunc_begin0    ##     jumps to Ltmp40
	.byte	0                       ##   On action: cleanup
	.uleb128 Ltmp43-Lfunc_begin0    ## >> Call Site 16 <<
	.uleb128 Ltmp44-Ltmp43          ##   Call between Ltmp43 and Ltmp44
	.uleb128 Ltmp45-Lfunc_begin0    ##     jumps to Ltmp45
	.byte	0                       ##   On action: cleanup
	.uleb128 Ltmp44-Lfunc_begin0    ## >> Call Site 17 <<
	.uleb128 Ltmp5-Ltmp44           ##   Call between Ltmp44 and Ltmp5
	.byte	0                       ##     has no landing pad
	.byte	0                       ##   On action: cleanup
	.uleb128 Ltmp5-Lfunc_begin0     ## >> Call Site 18 <<
	.uleb128 Ltmp47-Ltmp5           ##   Call between Ltmp5 and Ltmp47
	.uleb128 Ltmp48-Lfunc_begin0    ##     jumps to Ltmp48
	.byte	1                       ##   On action: 1
	.uleb128 Ltmp47-Lfunc_begin0    ## >> Call Site 19 <<
	.uleb128 Lfunc_end0-Ltmp47      ##   Call between Ltmp47 and Lfunc_end0
	.byte	0                       ##     has no landing pad
	.byte	0                       ##   On action: cleanup
Lcst_end0:
	.byte	1                       ## >> Action Record 1 <<
                                        ##   Catch TypeInfo 1
	.byte	0                       ##   No further actions
	.p2align	2
                                        ## >> Catch TypeInfos <<
	.long	0                       ## TypeInfo 1
Lttbase0:
	.p2align	2
                                        ## -- End function
	.section	__TEXT,__text,regular,pure_instructions
	.globl	__Z10assertTrueNSt3__112basic_stringIcNS_11char_traitsIcEENS_9allocatorIcEEEEb ## -- Begin function _Z10assertTrueNSt3__112basic_stringIcNS_11char_traitsIcEENS_9allocatorIcEEEEb
	.p2align	4, 0x90
__Z10assertTrueNSt3__112basic_stringIcNS_11char_traitsIcEENS_9allocatorIcEEEEb: ## @_Z10assertTrueNSt3__112basic_stringIcNS_11char_traitsIcEENS_9allocatorIcEEEEb
	.cfi_startproc
## %bb.0:
	pushq	%rbp
	.cfi_def_cfa_offset 16
	.cfi_offset %rbp, -16
	movq	%rsp, %rbp
	.cfi_def_cfa_register %rbp
	subq	$32, %rsp
	movb	%sil, %al
	andb	$1, %al
	movb	%al, -1(%rbp)
	testb	$1, -1(%rbp)
	movq	%rdi, -16(%rbp)         ## 8-byte Spill
	jne	LBB1_2
## %bb.1:
	movq	__ZNSt3__14cerrE@GOTPCREL(%rip), %rdi
	leaq	L_.str.8(%rip), %rsi
	callq	__ZNSt3__1lsINS_11char_traitsIcEEEERNS_13basic_ostreamIcT_EES6_PKc
	movq	%rax, %rdi
	movq	-16(%rbp), %rsi         ## 8-byte Reload
	callq	__ZNSt3__1lsIcNS_11char_traitsIcEENS_9allocatorIcEEEERNS_13basic_ostreamIT_T0_EES9_RKNS_12basic_stringIS6_S7_T1_EE
	movq	%rax, %rdi
	leaq	__ZNSt3__1L4endlIcNS_11char_traitsIcEEEERNS_13basic_ostreamIT_T0_EES7_(%rip), %rsi
	callq	__ZNSt3__113basic_ostreamIcNS_11char_traitsIcEEElsEPFRS3_S4_E
	movq	%rax, -24(%rbp)         ## 8-byte Spill
	jmp	LBB1_3
LBB1_2:
	movq	__ZNSt3__14coutE@GOTPCREL(%rip), %rdi
	leaq	L_.str.9(%rip), %rsi
	callq	__ZNSt3__1lsINS_11char_traitsIcEEEERNS_13basic_ostreamIcT_EES6_PKc
	movq	%rax, %rdi
	movq	-16(%rbp), %rsi         ## 8-byte Reload
	callq	__ZNSt3__1lsIcNS_11char_traitsIcEENS_9allocatorIcEEEERNS_13basic_ostreamIT_T0_EES9_RKNS_12basic_stringIS6_S7_T1_EE
	movq	%rax, %rdi
	leaq	__ZNSt3__1L4endlIcNS_11char_traitsIcEEEERNS_13basic_ostreamIT_T0_EES7_(%rip), %rsi
	callq	__ZNSt3__113basic_ostreamIcNS_11char_traitsIcEEElsEPFRS3_S4_E
	movq	%rax, -32(%rbp)         ## 8-byte Spill
LBB1_3:
	addq	$32, %rsp
	popq	%rbp
	retq
	.cfi_endproc
                                        ## -- End function
	.p2align	4, 0x90         ## -- Begin function _ZNSt3__112basic_stringIcNS_11char_traitsIcEENS_9allocatorIcEEEC1INS_9nullptr_tEEEPKc
__ZNSt3__112basic_stringIcNS_11char_traitsIcEENS_9allocatorIcEEEC1INS_9nullptr_tEEEPKc: ## @_ZNSt3__112basic_stringIcNS_11char_traitsIcEENS_9allocatorIcEEEC1INS_9nullptr_tEEEPKc
	.cfi_startproc
## %bb.0:
	pushq	%rbp
	.cfi_def_cfa_offset 16
	.cfi_offset %rbp, -16
	movq	%rsp, %rbp
	.cfi_def_cfa_register %rbp
	subq	$16, %rsp
	movq	%rdi, -8(%rbp)
	movq	%rsi, -16(%rbp)
	movq	-8(%rbp), %rdi
	movq	-16(%rbp), %rsi
	callq	__ZNSt3__112basic_stringIcNS_11char_traitsIcEENS_9allocatorIcEEEC2INS_9nullptr_tEEEPKc
	addq	$16, %rsp
	popq	%rbp
	retq
	.cfi_endproc
                                        ## -- End function
	.p2align	4, 0x90         ## -- Begin function _ZNSt3__1eqIcNS_11char_traitsIcEENS_9allocatorIcEEEEbRKNS_12basic_stringIT_T0_T1_EEPKS6_
__ZNSt3__1eqIcNS_11char_traitsIcEENS_9allocatorIcEEEEbRKNS_12basic_stringIT_T0_T1_EEPKS6_: ## @_ZNSt3__1eqIcNS_11char_traitsIcEENS_9allocatorIcEEEEbRKNS_12basic_stringIT_T0_T1_EEPKS6_
Lfunc_begin1:
	.cfi_startproc
	.cfi_personality 155, ___gxx_personality_v0
	.cfi_lsda 16, Lexception1
## %bb.0:
	pushq	%rbp
	.cfi_def_cfa_offset 16
	.cfi_offset %rbp, -16
	movq	%rsp, %rbp
	.cfi_def_cfa_register %rbp
	subq	$64, %rsp
	movq	%rdi, -16(%rbp)
	movq	%rsi, -24(%rbp)
	movq	-24(%rbp), %rdi
	callq	__ZNSt3__111char_traitsIcE6lengthEPKc
	movq	%rax, -32(%rbp)
	movq	-32(%rbp), %rax
	movq	-16(%rbp), %rdi
	movq	%rax, -56(%rbp)         ## 8-byte Spill
	callq	__ZNKSt3__112basic_stringIcNS_11char_traitsIcEENS_9allocatorIcEEE4sizeEv
	movq	-56(%rbp), %rsi         ## 8-byte Reload
	cmpq	%rax, %rsi
	je	LBB3_2
## %bb.1:
	movb	$0, -1(%rbp)
	jmp	LBB3_6
LBB3_2:
	movq	-16(%rbp), %rdi
	movq	-24(%rbp), %rcx
	movq	-32(%rbp), %r8
Ltmp49:
	xorl	%eax, %eax
	movl	%eax, %esi
	movq	$-1, %rdx
	callq	__ZNKSt3__112basic_stringIcNS_11char_traitsIcEENS_9allocatorIcEEE7compareEmmPKcm
Ltmp50:
	movl	%eax, -60(%rbp)         ## 4-byte Spill
	jmp	LBB3_3
LBB3_3:
	movl	-60(%rbp), %eax         ## 4-byte Reload
	cmpl	$0, %eax
	sete	%cl
	andb	$1, %cl
	movb	%cl, -1(%rbp)
	jmp	LBB3_6
LBB3_4:
Ltmp51:
	movl	%edx, %ecx
	movq	%rax, -40(%rbp)
	movl	%ecx, -44(%rbp)
## %bb.5:
	movq	-40(%rbp), %rdi
	callq	___cxa_call_unexpected
LBB3_6:
	movb	-1(%rbp), %al
	andb	$1, %al
	movzbl	%al, %eax
	addq	$64, %rsp
	popq	%rbp
	retq
Lfunc_end1:
	.cfi_endproc
	.section	__TEXT,__gcc_except_tab
	.p2align	2
GCC_except_table3:
Lexception1:
	.byte	255                     ## @LPStart Encoding = omit
	.byte	155                     ## @TType Encoding = indirect pcrel sdata4
	.uleb128 Lttbase1-Lttbaseref1
Lttbaseref1:
	.byte	1                       ## Call site Encoding = uleb128
	.uleb128 Lcst_end1-Lcst_begin1
Lcst_begin1:
	.uleb128 Ltmp49-Lfunc_begin1    ## >> Call Site 1 <<
	.uleb128 Ltmp50-Ltmp49          ##   Call between Ltmp49 and Ltmp50
	.uleb128 Ltmp51-Lfunc_begin1    ##     jumps to Ltmp51
	.byte	1                       ##   On action: 1
	.uleb128 Ltmp50-Lfunc_begin1    ## >> Call Site 2 <<
	.uleb128 Lfunc_end1-Ltmp50      ##   Call between Ltmp50 and Lfunc_end1
	.byte	0                       ##     has no landing pad
	.byte	0                       ##   On action: cleanup
Lcst_end1:
	.byte	127                     ## >> Action Record 1 <<
                                        ##   Filter TypeInfo -1
	.byte	0                       ##   No further actions
	.p2align	2
Lttbase1:
                                        ## >> Filter TypeInfos <<
	.byte	0
	.p2align	2
                                        ## -- End function
	.section	__TEXT,__text,regular,pure_instructions
	.globl	__Z12drawTrianglei      ## -- Begin function _Z12drawTrianglei
	.p2align	4, 0x90
__Z12drawTrianglei:                     ## @_Z12drawTrianglei
Lfunc_begin2:
	.cfi_startproc
	.cfi_personality 155, ___gxx_personality_v0
	.cfi_lsda 16, Lexception2
## %bb.0:
	pushq	%rbp
	.cfi_def_cfa_offset 16
	.cfi_offset %rbp, -16
	movq	%rsp, %rbp
	.cfi_def_cfa_register %rbp
	subq	$128, %rsp
	movq	%rdi, %rax
	movl	%esi, -4(%rbp)
	leaq	-32(%rbp), %rcx
	movq	%rdi, -80(%rbp)         ## 8-byte Spill
	movq	%rcx, %rdi
	leaq	L_.str.3(%rip), %rsi
	movq	%rax, -88(%rbp)         ## 8-byte Spill
	callq	__ZNSt3__112basic_stringIcNS_11char_traitsIcEENS_9allocatorIcEEEC1INS_9nullptr_tEEEPKc
	movl	-4(%rbp), %eax
	cltd
	movl	$2, %r8d
	idivl	%r8d
	cmpl	$0, %edx
	je	LBB4_2
## %bb.1:
	cmpl	$1, -4(%rbp)
	jge	LBB4_5
LBB4_2:
Ltmp62:
	leaq	L_.str.3(%rip), %rsi
	movq	-80(%rbp), %rdi         ## 8-byte Reload
	callq	__ZNSt3__112basic_stringIcNS_11char_traitsIcEENS_9allocatorIcEEEC1INS_9nullptr_tEEEPKc
Ltmp63:
	jmp	LBB4_3
LBB4_3:
	movl	$1, -48(%rbp)
	jmp	LBB4_27
LBB4_4:
Ltmp64:
	movl	%edx, %ecx
	movq	%rax, -40(%rbp)
	movl	%ecx, -44(%rbp)
Ltmp65:
	leaq	-32(%rbp), %rdi
	callq	__ZNSt3__112basic_stringIcNS_11char_traitsIcEENS_9allocatorIcEEED1Ev
Ltmp66:
	jmp	LBB4_28
LBB4_5:
	movl	$1, -52(%rbp)
LBB4_6:                                 ## =>This Loop Header: Depth=1
                                        ##     Child Loop BB4_8 Depth 2
                                        ##     Child Loop BB4_13 Depth 2
                                        ##     Child Loop BB4_18 Depth 2
	movl	-52(%rbp), %eax
	cmpl	-4(%rbp), %eax
	jg	LBB4_25
## %bb.7:                               ##   in Loop: Header=BB4_6 Depth=1
	movl	-4(%rbp), %eax
	subl	-52(%rbp), %eax
	cltd
	movl	$2, %ecx
	idivl	%ecx
	movl	%eax, -56(%rbp)
	movl	$0, -60(%rbp)
LBB4_8:                                 ##   Parent Loop BB4_6 Depth=1
                                        ## =>  This Inner Loop Header: Depth=2
	movl	-60(%rbp), %eax
	cmpl	-56(%rbp), %eax
	jge	LBB4_12
## %bb.9:                               ##   in Loop: Header=BB4_8 Depth=2
Ltmp60:
	leaq	-32(%rbp), %rdi
	movl	$32, %esi
	callq	__ZNSt3__112basic_stringIcNS_11char_traitsIcEENS_9allocatorIcEEEpLEc
Ltmp61:
	movq	%rax, -96(%rbp)         ## 8-byte Spill
	jmp	LBB4_10
LBB4_10:                                ##   in Loop: Header=BB4_8 Depth=2
	jmp	LBB4_11
LBB4_11:                                ##   in Loop: Header=BB4_8 Depth=2
	movl	-60(%rbp), %eax
	addl	$1, %eax
	movl	%eax, -60(%rbp)
	jmp	LBB4_8
LBB4_12:                                ##   in Loop: Header=BB4_6 Depth=1
	movl	$0, -64(%rbp)
LBB4_13:                                ##   Parent Loop BB4_6 Depth=1
                                        ## =>  This Inner Loop Header: Depth=2
	movl	-64(%rbp), %eax
	cmpl	-52(%rbp), %eax
	jge	LBB4_17
## %bb.14:                              ##   in Loop: Header=BB4_13 Depth=2
Ltmp58:
	leaq	-32(%rbp), %rdi
	movl	$42, %esi
	callq	__ZNSt3__112basic_stringIcNS_11char_traitsIcEENS_9allocatorIcEEEpLEc
Ltmp59:
	movq	%rax, -104(%rbp)        ## 8-byte Spill
	jmp	LBB4_15
LBB4_15:                                ##   in Loop: Header=BB4_13 Depth=2
	jmp	LBB4_16
LBB4_16:                                ##   in Loop: Header=BB4_13 Depth=2
	movl	-64(%rbp), %eax
	addl	$1, %eax
	movl	%eax, -64(%rbp)
	jmp	LBB4_13
LBB4_17:                                ##   in Loop: Header=BB4_6 Depth=1
	movl	$0, -68(%rbp)
LBB4_18:                                ##   Parent Loop BB4_6 Depth=1
                                        ## =>  This Inner Loop Header: Depth=2
	movl	-68(%rbp), %eax
	cmpl	-56(%rbp), %eax
	jge	LBB4_22
## %bb.19:                              ##   in Loop: Header=BB4_18 Depth=2
Ltmp56:
	leaq	-32(%rbp), %rdi
	movl	$32, %esi
	callq	__ZNSt3__112basic_stringIcNS_11char_traitsIcEENS_9allocatorIcEEEpLEc
Ltmp57:
	movq	%rax, -112(%rbp)        ## 8-byte Spill
	jmp	LBB4_20
LBB4_20:                                ##   in Loop: Header=BB4_18 Depth=2
	jmp	LBB4_21
LBB4_21:                                ##   in Loop: Header=BB4_18 Depth=2
	movl	-68(%rbp), %eax
	addl	$1, %eax
	movl	%eax, -68(%rbp)
	jmp	LBB4_18
LBB4_22:                                ##   in Loop: Header=BB4_6 Depth=1
Ltmp54:
	leaq	-32(%rbp), %rdi
	movl	$10, %esi
	callq	__ZNSt3__112basic_stringIcNS_11char_traitsIcEENS_9allocatorIcEEEpLEc
Ltmp55:
	movq	%rax, -120(%rbp)        ## 8-byte Spill
	jmp	LBB4_23
LBB4_23:                                ##   in Loop: Header=BB4_6 Depth=1
	jmp	LBB4_24
LBB4_24:                                ##   in Loop: Header=BB4_6 Depth=1
	movl	-52(%rbp), %eax
	addl	$2, %eax
	movl	%eax, -52(%rbp)
	jmp	LBB4_6
LBB4_25:
Ltmp52:
	leaq	-32(%rbp), %rsi
	movq	-80(%rbp), %rdi         ## 8-byte Reload
	callq	__ZNSt3__112basic_stringIcNS_11char_traitsIcEENS_9allocatorIcEEEC1ERKS5_
Ltmp53:
	jmp	LBB4_26
LBB4_26:
	movl	$1, -48(%rbp)
LBB4_27:
	leaq	-32(%rbp), %rdi
	callq	__ZNSt3__112basic_stringIcNS_11char_traitsIcEENS_9allocatorIcEEED1Ev
	movq	-88(%rbp), %rax         ## 8-byte Reload
	addq	$128, %rsp
	popq	%rbp
	retq
LBB4_28:
	jmp	LBB4_29
LBB4_29:
	movq	-40(%rbp), %rdi
	callq	__Unwind_Resume
	ud2
LBB4_30:
Ltmp67:
	movq	%rax, %rdi
	movq	%rdx, -128(%rbp)        ## 8-byte Spill
	callq	___clang_call_terminate
Lfunc_end2:
	.cfi_endproc
	.section	__TEXT,__gcc_except_tab
	.p2align	2
GCC_except_table4:
Lexception2:
	.byte	255                     ## @LPStart Encoding = omit
	.byte	155                     ## @TType Encoding = indirect pcrel sdata4
	.uleb128 Lttbase2-Lttbaseref2
Lttbaseref2:
	.byte	1                       ## Call site Encoding = uleb128
	.uleb128 Lcst_end2-Lcst_begin2
Lcst_begin2:
	.uleb128 Lfunc_begin2-Lfunc_begin2 ## >> Call Site 1 <<
	.uleb128 Ltmp62-Lfunc_begin2    ##   Call between Lfunc_begin2 and Ltmp62
	.byte	0                       ##     has no landing pad
	.byte	0                       ##   On action: cleanup
	.uleb128 Ltmp62-Lfunc_begin2    ## >> Call Site 2 <<
	.uleb128 Ltmp63-Ltmp62          ##   Call between Ltmp62 and Ltmp63
	.uleb128 Ltmp64-Lfunc_begin2    ##     jumps to Ltmp64
	.byte	0                       ##   On action: cleanup
	.uleb128 Ltmp65-Lfunc_begin2    ## >> Call Site 3 <<
	.uleb128 Ltmp66-Ltmp65          ##   Call between Ltmp65 and Ltmp66
	.uleb128 Ltmp67-Lfunc_begin2    ##     jumps to Ltmp67
	.byte	1                       ##   On action: 1
	.uleb128 Ltmp60-Lfunc_begin2    ## >> Call Site 4 <<
	.uleb128 Ltmp53-Ltmp60          ##   Call between Ltmp60 and Ltmp53
	.uleb128 Ltmp64-Lfunc_begin2    ##     jumps to Ltmp64
	.byte	0                       ##   On action: cleanup
	.uleb128 Ltmp53-Lfunc_begin2    ## >> Call Site 5 <<
	.uleb128 Lfunc_end2-Ltmp53      ##   Call between Ltmp53 and Lfunc_end2
	.byte	0                       ##     has no landing pad
	.byte	0                       ##   On action: cleanup
Lcst_end2:
	.byte	1                       ## >> Action Record 1 <<
                                        ##   Catch TypeInfo 1
	.byte	0                       ##   No further actions
	.p2align	2
                                        ## >> Catch TypeInfos <<
	.long	0                       ## TypeInfo 1
Lttbase2:
	.p2align	2
                                        ## -- End function
	.section	__TEXT,__text,regular,pure_instructions
	.private_extern	___clang_call_terminate ## -- Begin function __clang_call_terminate
	.globl	___clang_call_terminate
	.weak_definition	___clang_call_terminate
	.p2align	4, 0x90
___clang_call_terminate:                ## @__clang_call_terminate
## %bb.0:
	pushq	%rax
	callq	___cxa_begin_catch
	movq	%rax, (%rsp)            ## 8-byte Spill
	callq	__ZSt9terminatev
                                        ## -- End function
	.globl	__ZNSt3__1lsIcNS_11char_traitsIcEENS_9allocatorIcEEEERNS_13basic_ostreamIT_T0_EES9_RKNS_12basic_stringIS6_S7_T1_EE ## -- Begin function _ZNSt3__1lsIcNS_11char_traitsIcEENS_9allocatorIcEEEERNS_13basic_ostreamIT_T0_EES9_RKNS_12basic_stringIS6_S7_T1_EE
	.weak_definition	__ZNSt3__1lsIcNS_11char_traitsIcEENS_9allocatorIcEEEERNS_13basic_ostreamIT_T0_EES9_RKNS_12basic_stringIS6_S7_T1_EE
	.p2align	4, 0x90
__ZNSt3__1lsIcNS_11char_traitsIcEENS_9allocatorIcEEEERNS_13basic_ostreamIT_T0_EES9_RKNS_12basic_stringIS6_S7_T1_EE: ## @_ZNSt3__1lsIcNS_11char_traitsIcEENS_9allocatorIcEEEERNS_13basic_ostreamIT_T0_EES9_RKNS_12basic_stringIS6_S7_T1_EE
	.cfi_startproc
## %bb.0:
	pushq	%rbp
	.cfi_def_cfa_offset 16
	.cfi_offset %rbp, -16
	movq	%rsp, %rbp
	.cfi_def_cfa_register %rbp
	subq	$32, %rsp
	movq	%rdi, -8(%rbp)
	movq	%rsi, -16(%rbp)
	movq	-8(%rbp), %rdi
	movq	-16(%rbp), %rsi
	movq	%rdi, -24(%rbp)         ## 8-byte Spill
	movq	%rsi, %rdi
	callq	__ZNKSt3__112basic_stringIcNS_11char_traitsIcEENS_9allocatorIcEEE4dataEv
	movq	-16(%rbp), %rdi
	movq	%rax, -32(%rbp)         ## 8-byte Spill
	callq	__ZNKSt3__112basic_stringIcNS_11char_traitsIcEENS_9allocatorIcEEE4sizeEv
	movq	-24(%rbp), %rdi         ## 8-byte Reload
	movq	-32(%rbp), %rsi         ## 8-byte Reload
	movq	%rax, %rdx
	callq	__ZNSt3__124__put_character_sequenceIcNS_11char_traitsIcEEEERNS_13basic_ostreamIT_T0_EES7_PKS4_m
	addq	$32, %rsp
	popq	%rbp
	retq
	.cfi_endproc
                                        ## -- End function
	.globl	__ZNSt3__1lsINS_11char_traitsIcEEEERNS_13basic_ostreamIcT_EES6_PKc ## -- Begin function _ZNSt3__1lsINS_11char_traitsIcEEEERNS_13basic_ostreamIcT_EES6_PKc
	.weak_definition	__ZNSt3__1lsINS_11char_traitsIcEEEERNS_13basic_ostreamIcT_EES6_PKc
	.p2align	4, 0x90
__ZNSt3__1lsINS_11char_traitsIcEEEERNS_13basic_ostreamIcT_EES6_PKc: ## @_ZNSt3__1lsINS_11char_traitsIcEEEERNS_13basic_ostreamIcT_EES6_PKc
	.cfi_startproc
## %bb.0:
	pushq	%rbp
	.cfi_def_cfa_offset 16
	.cfi_offset %rbp, -16
	movq	%rsp, %rbp
	.cfi_def_cfa_register %rbp
	subq	$32, %rsp
	movq	%rdi, -8(%rbp)
	movq	%rsi, -16(%rbp)
	movq	-8(%rbp), %rdi
	movq	-16(%rbp), %rsi
	movq	-16(%rbp), %rax
	movq	%rdi, -24(%rbp)         ## 8-byte Spill
	movq	%rax, %rdi
	movq	%rsi, -32(%rbp)         ## 8-byte Spill
	callq	__ZNSt3__111char_traitsIcE6lengthEPKc
	movq	-24(%rbp), %rdi         ## 8-byte Reload
	movq	-32(%rbp), %rsi         ## 8-byte Reload
	movq	%rax, %rdx
	callq	__ZNSt3__124__put_character_sequenceIcNS_11char_traitsIcEEEERNS_13basic_ostreamIT_T0_EES7_PKS4_m
	addq	$32, %rsp
	popq	%rbp
	retq
	.cfi_endproc
                                        ## -- End function
	.p2align	4, 0x90         ## -- Begin function _ZNSt3__113basic_ostreamIcNS_11char_traitsIcEEElsEPFRS3_S4_E
__ZNSt3__113basic_ostreamIcNS_11char_traitsIcEEElsEPFRS3_S4_E: ## @_ZNSt3__113basic_ostreamIcNS_11char_traitsIcEEElsEPFRS3_S4_E
	.cfi_startproc
## %bb.0:
	pushq	%rbp
	.cfi_def_cfa_offset 16
	.cfi_offset %rbp, -16
	movq	%rsp, %rbp
	.cfi_def_cfa_register %rbp
	subq	$16, %rsp
	movq	%rdi, -8(%rbp)
	movq	%rsi, -16(%rbp)
	movq	-8(%rbp), %rdi
	callq	*-16(%rbp)
	addq	$16, %rsp
	popq	%rbp
	retq
	.cfi_endproc
                                        ## -- End function
	.p2align	4, 0x90         ## -- Begin function _ZNSt3__1L4endlIcNS_11char_traitsIcEEEERNS_13basic_ostreamIT_T0_EES7_
__ZNSt3__1L4endlIcNS_11char_traitsIcEEEERNS_13basic_ostreamIT_T0_EES7_: ## @_ZNSt3__1L4endlIcNS_11char_traitsIcEEEERNS_13basic_ostreamIT_T0_EES7_
	.cfi_startproc
## %bb.0:
	pushq	%rbp
	.cfi_def_cfa_offset 16
	.cfi_offset %rbp, -16
	movq	%rsp, %rbp
	.cfi_def_cfa_register %rbp
	subq	$32, %rsp
	movq	%rdi, -8(%rbp)
	movq	-8(%rbp), %rdi
	movq	-8(%rbp), %rax
	movq	(%rax), %rcx
	movq	-24(%rcx), %rcx
	addq	%rcx, %rax
	movq	%rdi, -16(%rbp)         ## 8-byte Spill
	movq	%rax, %rdi
	movl	$10, %esi
	callq	__ZNKSt3__19basic_iosIcNS_11char_traitsIcEEE5widenEc
	movq	-16(%rbp), %rdi         ## 8-byte Reload
	movsbl	%al, %esi
	callq	__ZNSt3__113basic_ostreamIcNS_11char_traitsIcEEE3putEc
	movq	-8(%rbp), %rdi
	movq	%rax, -24(%rbp)         ## 8-byte Spill
	callq	__ZNSt3__113basic_ostreamIcNS_11char_traitsIcEEE5flushEv
	movq	-8(%rbp), %rcx
	movq	%rax, -32(%rbp)         ## 8-byte Spill
	movq	%rcx, %rax
	addq	$32, %rsp
	popq	%rbp
	retq
	.cfi_endproc
                                        ## -- End function
	.globl	__Z10drawSquarei        ## -- Begin function _Z10drawSquarei
	.p2align	4, 0x90
__Z10drawSquarei:                       ## @_Z10drawSquarei
Lfunc_begin3:
	.cfi_startproc
	.cfi_personality 155, ___gxx_personality_v0
	.cfi_lsda 16, Lexception3
## %bb.0:
	pushq	%rbp
	.cfi_def_cfa_offset 16
	.cfi_offset %rbp, -16
	movq	%rsp, %rbp
	.cfi_def_cfa_register %rbp
	subq	$96, %rsp
	movq	%rdi, %rax
	movl	%esi, -4(%rbp)
	movb	$0, -5(%rbp)
	movq	%rdi, -64(%rbp)         ## 8-byte Spill
	leaq	L_.str.3(%rip), %rsi
	movq	%rax, -72(%rbp)         ## 8-byte Spill
	callq	__ZNSt3__112basic_stringIcNS_11char_traitsIcEENS_9allocatorIcEEEC1INS_9nullptr_tEEEPKc
	movl	$0, -12(%rbp)
LBB10_1:                                ## =>This Loop Header: Depth=1
                                        ##     Child Loop BB10_3 Depth 2
	movl	-12(%rbp), %eax
	cmpl	-4(%rbp), %eax
	jge	LBB10_15
## %bb.2:                               ##   in Loop: Header=BB10_1 Depth=1
	movl	$0, -16(%rbp)
LBB10_3:                                ##   Parent Loop BB10_1 Depth=1
                                        ## =>  This Inner Loop Header: Depth=2
	movl	-16(%rbp), %eax
	cmpl	-4(%rbp), %eax
	jge	LBB10_12
## %bb.4:                               ##   in Loop: Header=BB10_3 Depth=2
Ltmp70:
	leaq	L_.str.10(%rip), %rdx
	leaq	-40(%rbp), %rdi
	movq	-64(%rbp), %rsi         ## 8-byte Reload
	callq	__ZNSt3__1plIcNS_11char_traitsIcEENS_9allocatorIcEEEENS_12basic_stringIT_T0_T1_EERKS9_PKS6_
Ltmp71:
	jmp	LBB10_5
LBB10_5:                                ##   in Loop: Header=BB10_3 Depth=2
Ltmp72:
	leaq	-40(%rbp), %rsi
	movq	-64(%rbp), %rdi         ## 8-byte Reload
	callq	__ZNSt3__112basic_stringIcNS_11char_traitsIcEENS_9allocatorIcEEEaSERKS5_
Ltmp73:
	movq	%rax, -80(%rbp)         ## 8-byte Spill
	jmp	LBB10_6
LBB10_6:                                ##   in Loop: Header=BB10_3 Depth=2
Ltmp77:
	leaq	-40(%rbp), %rdi
	callq	__ZNSt3__112basic_stringIcNS_11char_traitsIcEENS_9allocatorIcEEED1Ev
Ltmp78:
	jmp	LBB10_7
LBB10_7:                                ##   in Loop: Header=BB10_3 Depth=2
	jmp	LBB10_8
LBB10_8:                                ##   in Loop: Header=BB10_3 Depth=2
	movl	-16(%rbp), %eax
	addl	$1, %eax
	movl	%eax, -16(%rbp)
	jmp	LBB10_3
LBB10_9:
Ltmp79:
	movl	%edx, %ecx
	movq	%rax, -48(%rbp)
	movl	%ecx, -52(%rbp)
	jmp	LBB10_18
LBB10_10:
Ltmp74:
	movl	%edx, %ecx
	movq	%rax, -48(%rbp)
	movl	%ecx, -52(%rbp)
Ltmp75:
	leaq	-40(%rbp), %rdi
	callq	__ZNSt3__112basic_stringIcNS_11char_traitsIcEENS_9allocatorIcEEED1Ev
Ltmp76:
	jmp	LBB10_11
LBB10_11:
	jmp	LBB10_18
LBB10_12:                               ##   in Loop: Header=BB10_1 Depth=1
Ltmp68:
	movl	$10, %esi
	movq	-64(%rbp), %rdi         ## 8-byte Reload
	callq	__ZNSt3__112basic_stringIcNS_11char_traitsIcEENS_9allocatorIcEEEpLEc
Ltmp69:
	movq	%rax, -88(%rbp)         ## 8-byte Spill
	jmp	LBB10_13
LBB10_13:                               ##   in Loop: Header=BB10_1 Depth=1
	jmp	LBB10_14
LBB10_14:                               ##   in Loop: Header=BB10_1 Depth=1
	movl	-12(%rbp), %eax
	addl	$1, %eax
	movl	%eax, -12(%rbp)
	jmp	LBB10_1
LBB10_15:
	movb	$1, -5(%rbp)
	testb	$1, -5(%rbp)
	jne	LBB10_17
## %bb.16:
	movq	-64(%rbp), %rdi         ## 8-byte Reload
	callq	__ZNSt3__112basic_stringIcNS_11char_traitsIcEENS_9allocatorIcEEED1Ev
LBB10_17:
	movq	-72(%rbp), %rax         ## 8-byte Reload
	addq	$96, %rsp
	popq	%rbp
	retq
LBB10_18:
Ltmp80:
	movq	-64(%rbp), %rdi         ## 8-byte Reload
	callq	__ZNSt3__112basic_stringIcNS_11char_traitsIcEENS_9allocatorIcEEED1Ev
Ltmp81:
	jmp	LBB10_19
LBB10_19:
	jmp	LBB10_20
LBB10_20:
	movq	-48(%rbp), %rdi
	callq	__Unwind_Resume
	ud2
LBB10_21:
Ltmp82:
	movq	%rax, %rdi
	movq	%rdx, -96(%rbp)         ## 8-byte Spill
	callq	___clang_call_terminate
Lfunc_end3:
	.cfi_endproc
	.section	__TEXT,__gcc_except_tab
	.p2align	2
GCC_except_table10:
Lexception3:
	.byte	255                     ## @LPStart Encoding = omit
	.byte	155                     ## @TType Encoding = indirect pcrel sdata4
	.uleb128 Lttbase3-Lttbaseref3
Lttbaseref3:
	.byte	1                       ## Call site Encoding = uleb128
	.uleb128 Lcst_end3-Lcst_begin3
Lcst_begin3:
	.uleb128 Lfunc_begin3-Lfunc_begin3 ## >> Call Site 1 <<
	.uleb128 Ltmp70-Lfunc_begin3    ##   Call between Lfunc_begin3 and Ltmp70
	.byte	0                       ##     has no landing pad
	.byte	0                       ##   On action: cleanup
	.uleb128 Ltmp70-Lfunc_begin3    ## >> Call Site 2 <<
	.uleb128 Ltmp71-Ltmp70          ##   Call between Ltmp70 and Ltmp71
	.uleb128 Ltmp79-Lfunc_begin3    ##     jumps to Ltmp79
	.byte	0                       ##   On action: cleanup
	.uleb128 Ltmp72-Lfunc_begin3    ## >> Call Site 3 <<
	.uleb128 Ltmp73-Ltmp72          ##   Call between Ltmp72 and Ltmp73
	.uleb128 Ltmp74-Lfunc_begin3    ##     jumps to Ltmp74
	.byte	0                       ##   On action: cleanup
	.uleb128 Ltmp77-Lfunc_begin3    ## >> Call Site 4 <<
	.uleb128 Ltmp78-Ltmp77          ##   Call between Ltmp77 and Ltmp78
	.uleb128 Ltmp79-Lfunc_begin3    ##     jumps to Ltmp79
	.byte	0                       ##   On action: cleanup
	.uleb128 Ltmp75-Lfunc_begin3    ## >> Call Site 5 <<
	.uleb128 Ltmp76-Ltmp75          ##   Call between Ltmp75 and Ltmp76
	.uleb128 Ltmp82-Lfunc_begin3    ##     jumps to Ltmp82
	.byte	1                       ##   On action: 1
	.uleb128 Ltmp68-Lfunc_begin3    ## >> Call Site 6 <<
	.uleb128 Ltmp69-Ltmp68          ##   Call between Ltmp68 and Ltmp69
	.uleb128 Ltmp79-Lfunc_begin3    ##     jumps to Ltmp79
	.byte	0                       ##   On action: cleanup
	.uleb128 Ltmp69-Lfunc_begin3    ## >> Call Site 7 <<
	.uleb128 Ltmp80-Ltmp69          ##   Call between Ltmp69 and Ltmp80
	.byte	0                       ##     has no landing pad
	.byte	0                       ##   On action: cleanup
	.uleb128 Ltmp80-Lfunc_begin3    ## >> Call Site 8 <<
	.uleb128 Ltmp81-Ltmp80          ##   Call between Ltmp80 and Ltmp81
	.uleb128 Ltmp82-Lfunc_begin3    ##     jumps to Ltmp82
	.byte	1                       ##   On action: 1
	.uleb128 Ltmp81-Lfunc_begin3    ## >> Call Site 9 <<
	.uleb128 Lfunc_end3-Ltmp81      ##   Call between Ltmp81 and Lfunc_end3
	.byte	0                       ##     has no landing pad
	.byte	0                       ##   On action: cleanup
Lcst_end3:
	.byte	1                       ## >> Action Record 1 <<
                                        ##   Catch TypeInfo 1
	.byte	0                       ##   No further actions
	.p2align	2
                                        ## >> Catch TypeInfos <<
	.long	0                       ## TypeInfo 1
Lttbase3:
	.p2align	2
                                        ## -- End function
	.section	__TEXT,__text,regular,pure_instructions
	.p2align	4, 0x90         ## -- Begin function _ZNSt3__1plIcNS_11char_traitsIcEENS_9allocatorIcEEEENS_12basic_stringIT_T0_T1_EERKS9_PKS6_
__ZNSt3__1plIcNS_11char_traitsIcEENS_9allocatorIcEEEENS_12basic_stringIT_T0_T1_EERKS9_PKS6_: ## @_ZNSt3__1plIcNS_11char_traitsIcEENS_9allocatorIcEEEENS_12basic_stringIT_T0_T1_EERKS9_PKS6_
Lfunc_begin4:
	.cfi_startproc
	.cfi_personality 155, ___gxx_personality_v0
	.cfi_lsda 16, Lexception4
## %bb.0:
	pushq	%rbp
	.cfi_def_cfa_offset 16
	.cfi_offset %rbp, -16
	movq	%rsp, %rbp
	.cfi_def_cfa_register %rbp
	subq	$112, %rsp
	movq	%rdi, %rax
	movq	%rsi, -8(%rbp)
	movq	%rdx, -16(%rbp)
	movb	$0, -17(%rbp)
	movq	-8(%rbp), %rdx
	movq	%rdi, -72(%rbp)         ## 8-byte Spill
	movq	%rdx, %rdi
	movq	%rax, -80(%rbp)         ## 8-byte Spill
	callq	__ZNKSt3__112basic_stringIcNS_11char_traitsIcEENS_9allocatorIcEEE13get_allocatorEv
	leaq	-24(%rbp), %rsi
	movq	-72(%rbp), %rdi         ## 8-byte Reload
	callq	__ZNSt3__112basic_stringIcNS_11char_traitsIcEENS_9allocatorIcEEEC1ERKS4_
	movq	-8(%rbp), %rdi
	callq	__ZNKSt3__112basic_stringIcNS_11char_traitsIcEENS_9allocatorIcEEE4sizeEv
	movq	%rax, -40(%rbp)
	movq	-16(%rbp), %rdi
	callq	__ZNSt3__111char_traitsIcE6lengthEPKc
	movq	%rax, -48(%rbp)
	movq	-8(%rbp), %rdi
	callq	__ZNKSt3__112basic_stringIcNS_11char_traitsIcEENS_9allocatorIcEEE4dataEv
	movq	-40(%rbp), %rdx
	movq	-48(%rbp), %rsi
	movq	%rdx, %rdi
	addq	%rsi, %rdi
Ltmp83:
	movq	-72(%rbp), %rsi         ## 8-byte Reload
	movq	%rdi, -88(%rbp)         ## 8-byte Spill
	movq	%rsi, %rdi
	movq	%rax, %rsi
	movq	-88(%rbp), %rcx         ## 8-byte Reload
	callq	__ZNSt3__112basic_stringIcNS_11char_traitsIcEENS_9allocatorIcEEE6__initEPKcmm
Ltmp84:
	jmp	LBB11_1
LBB11_1:
	movq	-16(%rbp), %rsi
	movq	-48(%rbp), %rdx
Ltmp85:
	movq	-72(%rbp), %rdi         ## 8-byte Reload
	callq	__ZNSt3__112basic_stringIcNS_11char_traitsIcEENS_9allocatorIcEEE6appendEPKcm
Ltmp86:
	movq	%rax, -96(%rbp)         ## 8-byte Spill
	jmp	LBB11_2
LBB11_2:
	movb	$1, -17(%rbp)
	testb	$1, -17(%rbp)
	jne	LBB11_5
	jmp	LBB11_4
LBB11_3:
Ltmp87:
	movl	%edx, %ecx
	movq	%rax, -56(%rbp)
	movl	%ecx, -60(%rbp)
Ltmp88:
	movq	-72(%rbp), %rdi         ## 8-byte Reload
	callq	__ZNSt3__112basic_stringIcNS_11char_traitsIcEENS_9allocatorIcEEED1Ev
Ltmp89:
	jmp	LBB11_6
LBB11_4:
	movq	-72(%rbp), %rdi         ## 8-byte Reload
	callq	__ZNSt3__112basic_stringIcNS_11char_traitsIcEENS_9allocatorIcEEED1Ev
LBB11_5:
	movq	-80(%rbp), %rax         ## 8-byte Reload
	addq	$112, %rsp
	popq	%rbp
	retq
LBB11_6:
	jmp	LBB11_7
LBB11_7:
	movq	-56(%rbp), %rdi
	callq	__Unwind_Resume
	ud2
LBB11_8:
Ltmp90:
	movq	%rax, %rdi
	movq	%rdx, -104(%rbp)        ## 8-byte Spill
	callq	___clang_call_terminate
Lfunc_end4:
	.cfi_endproc
	.section	__TEXT,__gcc_except_tab
	.p2align	2
GCC_except_table11:
Lexception4:
	.byte	255                     ## @LPStart Encoding = omit
	.byte	155                     ## @TType Encoding = indirect pcrel sdata4
	.uleb128 Lttbase4-Lttbaseref4
Lttbaseref4:
	.byte	1                       ## Call site Encoding = uleb128
	.uleb128 Lcst_end4-Lcst_begin4
Lcst_begin4:
	.uleb128 Lfunc_begin4-Lfunc_begin4 ## >> Call Site 1 <<
	.uleb128 Ltmp83-Lfunc_begin4    ##   Call between Lfunc_begin4 and Ltmp83
	.byte	0                       ##     has no landing pad
	.byte	0                       ##   On action: cleanup
	.uleb128 Ltmp83-Lfunc_begin4    ## >> Call Site 2 <<
	.uleb128 Ltmp86-Ltmp83          ##   Call between Ltmp83 and Ltmp86
	.uleb128 Ltmp87-Lfunc_begin4    ##     jumps to Ltmp87
	.byte	0                       ##   On action: cleanup
	.uleb128 Ltmp88-Lfunc_begin4    ## >> Call Site 3 <<
	.uleb128 Ltmp89-Ltmp88          ##   Call between Ltmp88 and Ltmp89
	.uleb128 Ltmp90-Lfunc_begin4    ##     jumps to Ltmp90
	.byte	1                       ##   On action: 1
	.uleb128 Ltmp89-Lfunc_begin4    ## >> Call Site 4 <<
	.uleb128 Lfunc_end4-Ltmp89      ##   Call between Ltmp89 and Lfunc_end4
	.byte	0                       ##     has no landing pad
	.byte	0                       ##   On action: cleanup
Lcst_end4:
	.byte	1                       ## >> Action Record 1 <<
                                        ##   Catch TypeInfo 1
	.byte	0                       ##   No further actions
	.p2align	2
                                        ## >> Catch TypeInfos <<
	.long	0                       ## TypeInfo 1
Lttbase4:
	.p2align	2
                                        ## -- End function
	.section	__TEXT,__text,regular,pure_instructions
	.p2align	4, 0x90         ## -- Begin function _ZNSt3__112basic_stringIcNS_11char_traitsIcEENS_9allocatorIcEEEpLEc
__ZNSt3__112basic_stringIcNS_11char_traitsIcEENS_9allocatorIcEEEpLEc: ## @_ZNSt3__112basic_stringIcNS_11char_traitsIcEENS_9allocatorIcEEEpLEc
	.cfi_startproc
## %bb.0:
	pushq	%rbp
	.cfi_def_cfa_offset 16
	.cfi_offset %rbp, -16
	movq	%rsp, %rbp
	.cfi_def_cfa_register %rbp
	subq	$32, %rsp
	movb	%sil, %al
	movq	%rdi, -8(%rbp)
	movb	%al, -9(%rbp)
	movq	-8(%rbp), %rdi
	movq	%rdi, -24(%rbp)         ## 8-byte Spill
	movsbl	-9(%rbp), %esi
	callq	__ZNSt3__112basic_stringIcNS_11char_traitsIcEENS_9allocatorIcEEE9push_backEc
	movq	-24(%rbp), %rax         ## 8-byte Reload
	addq	$32, %rsp
	popq	%rbp
	retq
	.cfi_endproc
                                        ## -- End function
	.globl	__ZNSt3__111char_traitsIcE6lengthEPKc ## -- Begin function _ZNSt3__111char_traitsIcE6lengthEPKc
	.weak_definition	__ZNSt3__111char_traitsIcE6lengthEPKc
	.p2align	4, 0x90
__ZNSt3__111char_traitsIcE6lengthEPKc:  ## @_ZNSt3__111char_traitsIcE6lengthEPKc
	.cfi_startproc
## %bb.0:
	pushq	%rbp
	.cfi_def_cfa_offset 16
	.cfi_offset %rbp, -16
	movq	%rsp, %rbp
	.cfi_def_cfa_register %rbp
	subq	$16, %rsp
	movq	%rdi, -8(%rbp)
	movq	-8(%rbp), %rdi
	callq	_strlen
	addq	$16, %rsp
	popq	%rbp
	retq
	.cfi_endproc
                                        ## -- End function
	.p2align	4, 0x90         ## -- Begin function _ZNKSt3__112basic_stringIcNS_11char_traitsIcEENS_9allocatorIcEEE4sizeEv
__ZNKSt3__112basic_stringIcNS_11char_traitsIcEENS_9allocatorIcEEE4sizeEv: ## @_ZNKSt3__112basic_stringIcNS_11char_traitsIcEENS_9allocatorIcEEE4sizeEv
	.cfi_startproc
## %bb.0:
	pushq	%rbp
	.cfi_def_cfa_offset 16
	.cfi_offset %rbp, -16
	movq	%rsp, %rbp
	.cfi_def_cfa_register %rbp
	subq	$32, %rsp
	movq	%rdi, -8(%rbp)
	movq	-8(%rbp), %rdi
	movq	%rdi, -16(%rbp)         ## 8-byte Spill
	callq	__ZNKSt3__112basic_stringIcNS_11char_traitsIcEENS_9allocatorIcEEE9__is_longEv
	testb	$1, %al
	jne	LBB14_1
	jmp	LBB14_2
LBB14_1:
	movq	-16(%rbp), %rdi         ## 8-byte Reload
	callq	__ZNKSt3__112basic_stringIcNS_11char_traitsIcEENS_9allocatorIcEEE15__get_long_sizeEv
	movq	%rax, -24(%rbp)         ## 8-byte Spill
	jmp	LBB14_3
LBB14_2:
	movq	-16(%rbp), %rdi         ## 8-byte Reload
	callq	__ZNKSt3__112basic_stringIcNS_11char_traitsIcEENS_9allocatorIcEEE16__get_short_sizeEv
	movq	%rax, -24(%rbp)         ## 8-byte Spill
LBB14_3:
	movq	-24(%rbp), %rax         ## 8-byte Reload
	addq	$32, %rsp
	popq	%rbp
	retq
	.cfi_endproc
                                        ## -- End function
	.p2align	4, 0x90         ## -- Begin function _ZNKSt3__112basic_stringIcNS_11char_traitsIcEENS_9allocatorIcEEE9__is_longEv
__ZNKSt3__112basic_stringIcNS_11char_traitsIcEENS_9allocatorIcEEE9__is_longEv: ## @_ZNKSt3__112basic_stringIcNS_11char_traitsIcEENS_9allocatorIcEEE9__is_longEv
	.cfi_startproc
## %bb.0:
	pushq	%rbp
	.cfi_def_cfa_offset 16
	.cfi_offset %rbp, -16
	movq	%rsp, %rbp
	.cfi_def_cfa_register %rbp
	subq	$16, %rsp
	movq	%rdi, -8(%rbp)
	movq	-8(%rbp), %rdi
	callq	__ZNKSt3__117__compressed_pairINS_12basic_stringIcNS_11char_traitsIcEENS_9allocatorIcEEE5__repES5_E5firstEv
	movzbl	(%rax), %ecx
	movl	%ecx, %eax
	andq	$1, %rax
	cmpq	$0, %rax
	setne	%dl
	andb	$1, %dl
	movzbl	%dl, %eax
	addq	$16, %rsp
	popq	%rbp
	retq
	.cfi_endproc
                                        ## -- End function
	.p2align	4, 0x90         ## -- Begin function _ZNKSt3__112basic_stringIcNS_11char_traitsIcEENS_9allocatorIcEEE15__get_long_sizeEv
__ZNKSt3__112basic_stringIcNS_11char_traitsIcEENS_9allocatorIcEEE15__get_long_sizeEv: ## @_ZNKSt3__112basic_stringIcNS_11char_traitsIcEENS_9allocatorIcEEE15__get_long_sizeEv
	.cfi_startproc
## %bb.0:
	pushq	%rbp
	.cfi_def_cfa_offset 16
	.cfi_offset %rbp, -16
	movq	%rsp, %rbp
	.cfi_def_cfa_register %rbp
	subq	$16, %rsp
	movq	%rdi, -8(%rbp)
	movq	-8(%rbp), %rdi
	callq	__ZNKSt3__117__compressed_pairINS_12basic_stringIcNS_11char_traitsIcEENS_9allocatorIcEEE5__repES5_E5firstEv
	movq	8(%rax), %rax
	addq	$16, %rsp
	popq	%rbp
	retq
	.cfi_endproc
                                        ## -- End function
	.p2align	4, 0x90         ## -- Begin function _ZNKSt3__112basic_stringIcNS_11char_traitsIcEENS_9allocatorIcEEE16__get_short_sizeEv
__ZNKSt3__112basic_stringIcNS_11char_traitsIcEENS_9allocatorIcEEE16__get_short_sizeEv: ## @_ZNKSt3__112basic_stringIcNS_11char_traitsIcEENS_9allocatorIcEEE16__get_short_sizeEv
	.cfi_startproc
## %bb.0:
	pushq	%rbp
	.cfi_def_cfa_offset 16
	.cfi_offset %rbp, -16
	movq	%rsp, %rbp
	.cfi_def_cfa_register %rbp
	subq	$16, %rsp
	movq	%rdi, -8(%rbp)
	movq	-8(%rbp), %rdi
	callq	__ZNKSt3__117__compressed_pairINS_12basic_stringIcNS_11char_traitsIcEENS_9allocatorIcEEE5__repES5_E5firstEv
	movzbl	(%rax), %ecx
	sarl	$1, %ecx
	movslq	%ecx, %rax
	addq	$16, %rsp
	popq	%rbp
	retq
	.cfi_endproc
                                        ## -- End function
	.p2align	4, 0x90         ## -- Begin function _ZNKSt3__117__compressed_pairINS_12basic_stringIcNS_11char_traitsIcEENS_9allocatorIcEEE5__repES5_E5firstEv
__ZNKSt3__117__compressed_pairINS_12basic_stringIcNS_11char_traitsIcEENS_9allocatorIcEEE5__repES5_E5firstEv: ## @_ZNKSt3__117__compressed_pairINS_12basic_stringIcNS_11char_traitsIcEENS_9allocatorIcEEE5__repES5_E5firstEv
	.cfi_startproc
## %bb.0:
	pushq	%rbp
	.cfi_def_cfa_offset 16
	.cfi_offset %rbp, -16
	movq	%rsp, %rbp
	.cfi_def_cfa_register %rbp
	subq	$16, %rsp
	movq	%rdi, -8(%rbp)
	movq	-8(%rbp), %rdi
	callq	__ZNKSt3__122__compressed_pair_elemINS_12basic_stringIcNS_11char_traitsIcEENS_9allocatorIcEEE5__repELi0ELb0EE5__getEv
	addq	$16, %rsp
	popq	%rbp
	retq
	.cfi_endproc
                                        ## -- End function
	.p2align	4, 0x90         ## -- Begin function _ZNKSt3__122__compressed_pair_elemINS_12basic_stringIcNS_11char_traitsIcEENS_9allocatorIcEEE5__repELi0ELb0EE5__getEv
__ZNKSt3__122__compressed_pair_elemINS_12basic_stringIcNS_11char_traitsIcEENS_9allocatorIcEEE5__repELi0ELb0EE5__getEv: ## @_ZNKSt3__122__compressed_pair_elemINS_12basic_stringIcNS_11char_traitsIcEENS_9allocatorIcEEE5__repELi0ELb0EE5__getEv
	.cfi_startproc
## %bb.0:
	pushq	%rbp
	.cfi_def_cfa_offset 16
	.cfi_offset %rbp, -16
	movq	%rsp, %rbp
	.cfi_def_cfa_register %rbp
	movq	%rdi, -8(%rbp)
	movq	-8(%rbp), %rax
	popq	%rbp
	retq
	.cfi_endproc
                                        ## -- End function
	.p2align	4, 0x90         ## -- Begin function _ZNSt3__112basic_stringIcNS_11char_traitsIcEENS_9allocatorIcEEEC2INS_9nullptr_tEEEPKc
__ZNSt3__112basic_stringIcNS_11char_traitsIcEENS_9allocatorIcEEEC2INS_9nullptr_tEEEPKc: ## @_ZNSt3__112basic_stringIcNS_11char_traitsIcEENS_9allocatorIcEEEC2INS_9nullptr_tEEEPKc
	.cfi_startproc
## %bb.0:
	pushq	%rbp
	.cfi_def_cfa_offset 16
	.cfi_offset %rbp, -16
	movq	%rsp, %rbp
	.cfi_def_cfa_register %rbp
	subq	$32, %rsp
	movq	%rdi, -8(%rbp)
	movq	%rsi, -16(%rbp)
	movq	-8(%rbp), %rsi
	movq	%rsi, %rdi
	movq	%rsi, -24(%rbp)         ## 8-byte Spill
	callq	__ZNSt3__117__compressed_pairINS_12basic_stringIcNS_11char_traitsIcEENS_9allocatorIcEEE5__repES5_EC1Ev
	movq	-16(%rbp), %rsi
	movq	-16(%rbp), %rdi
	movq	%rsi, -32(%rbp)         ## 8-byte Spill
	callq	__ZNSt3__111char_traitsIcE6lengthEPKc
	movq	-24(%rbp), %rdi         ## 8-byte Reload
	movq	-32(%rbp), %rsi         ## 8-byte Reload
	movq	%rax, %rdx
	callq	__ZNSt3__112basic_stringIcNS_11char_traitsIcEENS_9allocatorIcEEE6__initEPKcm
	addq	$32, %rsp
	popq	%rbp
	retq
	.cfi_endproc
                                        ## -- End function
	.p2align	4, 0x90         ## -- Begin function _ZNSt3__117__compressed_pairINS_12basic_stringIcNS_11char_traitsIcEENS_9allocatorIcEEE5__repES5_EC1Ev
__ZNSt3__117__compressed_pairINS_12basic_stringIcNS_11char_traitsIcEENS_9allocatorIcEEE5__repES5_EC1Ev: ## @_ZNSt3__117__compressed_pairINS_12basic_stringIcNS_11char_traitsIcEENS_9allocatorIcEEE5__repES5_EC1Ev
	.cfi_startproc
## %bb.0:
	pushq	%rbp
	.cfi_def_cfa_offset 16
	.cfi_offset %rbp, -16
	movq	%rsp, %rbp
	.cfi_def_cfa_register %rbp
	subq	$16, %rsp
	movq	%rdi, -8(%rbp)
	movq	-8(%rbp), %rdi
	callq	__ZNSt3__117__compressed_pairINS_12basic_stringIcNS_11char_traitsIcEENS_9allocatorIcEEE5__repES5_EC2Ev
	addq	$16, %rsp
	popq	%rbp
	retq
	.cfi_endproc
                                        ## -- End function
	.p2align	4, 0x90         ## -- Begin function _ZNSt3__117__compressed_pairINS_12basic_stringIcNS_11char_traitsIcEENS_9allocatorIcEEE5__repES5_EC2Ev
__ZNSt3__117__compressed_pairINS_12basic_stringIcNS_11char_traitsIcEENS_9allocatorIcEEE5__repES5_EC2Ev: ## @_ZNSt3__117__compressed_pairINS_12basic_stringIcNS_11char_traitsIcEENS_9allocatorIcEEE5__repES5_EC2Ev
	.cfi_startproc
## %bb.0:
	pushq	%rbp
	.cfi_def_cfa_offset 16
	.cfi_offset %rbp, -16
	movq	%rsp, %rbp
	.cfi_def_cfa_register %rbp
	subq	$16, %rsp
	movq	%rdi, -8(%rbp)
	movq	-8(%rbp), %rdi
	movq	%rdi, %rax
	movq	%rdi, -16(%rbp)         ## 8-byte Spill
	movq	%rax, %rdi
	callq	__ZNSt3__122__compressed_pair_elemINS_12basic_stringIcNS_11char_traitsIcEENS_9allocatorIcEEE5__repELi0ELb0EEC2Ev
	movq	-16(%rbp), %rax         ## 8-byte Reload
	movq	%rax, %rdi
	callq	__ZNSt3__122__compressed_pair_elemINS_9allocatorIcEELi1ELb1EEC2Ev
	addq	$16, %rsp
	popq	%rbp
	retq
	.cfi_endproc
                                        ## -- End function
	.p2align	4, 0x90         ## -- Begin function _ZNSt3__122__compressed_pair_elemINS_12basic_stringIcNS_11char_traitsIcEENS_9allocatorIcEEE5__repELi0ELb0EEC2Ev
__ZNSt3__122__compressed_pair_elemINS_12basic_stringIcNS_11char_traitsIcEENS_9allocatorIcEEE5__repELi0ELb0EEC2Ev: ## @_ZNSt3__122__compressed_pair_elemINS_12basic_stringIcNS_11char_traitsIcEENS_9allocatorIcEEE5__repELi0ELb0EEC2Ev
	.cfi_startproc
## %bb.0:
	pushq	%rbp
	.cfi_def_cfa_offset 16
	.cfi_offset %rbp, -16
	movq	%rsp, %rbp
	.cfi_def_cfa_register %rbp
	subq	$16, %rsp
	xorl	%esi, %esi
	movq	%rdi, -8(%rbp)
	movq	-8(%rbp), %rdi
	movl	$24, %edx
	callq	_memset
	addq	$16, %rsp
	popq	%rbp
	retq
	.cfi_endproc
                                        ## -- End function
	.p2align	4, 0x90         ## -- Begin function _ZNSt3__122__compressed_pair_elemINS_9allocatorIcEELi1ELb1EEC2Ev
__ZNSt3__122__compressed_pair_elemINS_9allocatorIcEELi1ELb1EEC2Ev: ## @_ZNSt3__122__compressed_pair_elemINS_9allocatorIcEELi1ELb1EEC2Ev
	.cfi_startproc
## %bb.0:
	pushq	%rbp
	.cfi_def_cfa_offset 16
	.cfi_offset %rbp, -16
	movq	%rsp, %rbp
	.cfi_def_cfa_register %rbp
	subq	$16, %rsp
	movq	%rdi, -8(%rbp)
	movq	-8(%rbp), %rdi
	callq	__ZNSt3__19allocatorIcEC2Ev
	addq	$16, %rsp
	popq	%rbp
	retq
	.cfi_endproc
                                        ## -- End function
	.p2align	4, 0x90         ## -- Begin function _ZNSt3__19allocatorIcEC2Ev
__ZNSt3__19allocatorIcEC2Ev:            ## @_ZNSt3__19allocatorIcEC2Ev
	.cfi_startproc
## %bb.0:
	pushq	%rbp
	.cfi_def_cfa_offset 16
	.cfi_offset %rbp, -16
	movq	%rsp, %rbp
	.cfi_def_cfa_register %rbp
	movq	%rdi, -8(%rbp)
	popq	%rbp
	retq
	.cfi_endproc
                                        ## -- End function
	.globl	__ZNSt3__124__put_character_sequenceIcNS_11char_traitsIcEEEERNS_13basic_ostreamIT_T0_EES7_PKS4_m ## -- Begin function _ZNSt3__124__put_character_sequenceIcNS_11char_traitsIcEEEERNS_13basic_ostreamIT_T0_EES7_PKS4_m
	.weak_definition	__ZNSt3__124__put_character_sequenceIcNS_11char_traitsIcEEEERNS_13basic_ostreamIT_T0_EES7_PKS4_m
	.p2align	4, 0x90
__ZNSt3__124__put_character_sequenceIcNS_11char_traitsIcEEEERNS_13basic_ostreamIT_T0_EES7_PKS4_m: ## @_ZNSt3__124__put_character_sequenceIcNS_11char_traitsIcEEEERNS_13basic_ostreamIT_T0_EES7_PKS4_m
Lfunc_begin5:
	.cfi_startproc
	.cfi_personality 155, ___gxx_personality_v0
	.cfi_lsda 16, Lexception5
## %bb.0:
	pushq	%rbp
	.cfi_def_cfa_offset 16
	.cfi_offset %rbp, -16
	movq	%rsp, %rbp
	.cfi_def_cfa_register %rbp
	subq	$160, %rsp
	movq	%rdi, -8(%rbp)
	movq	%rsi, -16(%rbp)
	movq	%rdx, -24(%rbp)
	movq	-8(%rbp), %rsi
Ltmp91:
	leaq	-40(%rbp), %rdi
	callq	__ZNSt3__113basic_ostreamIcNS_11char_traitsIcEEE6sentryC1ERS3_
Ltmp92:
	jmp	LBB26_1
LBB26_1:
Ltmp93:
	leaq	-40(%rbp), %rdi
	callq	__ZNKSt3__113basic_ostreamIcNS_11char_traitsIcEEE6sentrycvbEv
Ltmp94:
	movb	%al, -73(%rbp)          ## 1-byte Spill
	jmp	LBB26_2
LBB26_2:
	movb	-73(%rbp), %al          ## 1-byte Reload
	testb	$1, %al
	jne	LBB26_3
	jmp	LBB26_15
LBB26_3:
	movq	-8(%rbp), %rsi
	leaq	-72(%rbp), %rdi
	callq	__ZNSt3__119ostreambuf_iteratorIcNS_11char_traitsIcEEEC1ERNS_13basic_ostreamIcS2_EE
	movq	-16(%rbp), %rsi
	movq	-8(%rbp), %rdi
	movq	(%rdi), %rax
	movq	-24(%rax), %rax
	addq	%rax, %rdi
Ltmp95:
	movq	%rsi, -88(%rbp)         ## 8-byte Spill
	callq	__ZNKSt3__18ios_base5flagsEv
Ltmp96:
	movl	%eax, -92(%rbp)         ## 4-byte Spill
	jmp	LBB26_4
LBB26_4:
	movl	-92(%rbp), %eax         ## 4-byte Reload
	andl	$176, %eax
	cmpl	$32, %eax
	jne	LBB26_6
## %bb.5:
	movq	-16(%rbp), %rax
	addq	-24(%rbp), %rax
	movq	%rax, -104(%rbp)        ## 8-byte Spill
	jmp	LBB26_7
LBB26_6:
	movq	-16(%rbp), %rax
	movq	%rax, -104(%rbp)        ## 8-byte Spill
LBB26_7:
	movq	-104(%rbp), %rax        ## 8-byte Reload
	movq	-16(%rbp), %rcx
	movq	-24(%rbp), %rdx
	addq	%rdx, %rcx
	movq	-8(%rbp), %rdx
	movq	(%rdx), %rsi
	movq	-24(%rsi), %rsi
	addq	%rsi, %rdx
Ltmp97:
	movq	%rdx, %rdi
	movq	%rax, -112(%rbp)        ## 8-byte Spill
	movq	%rcx, -120(%rbp)        ## 8-byte Spill
	movq	%rdx, -128(%rbp)        ## 8-byte Spill
	callq	__ZNKSt3__19basic_iosIcNS_11char_traitsIcEEE4fillEv
Ltmp98:
	movb	%al, -129(%rbp)         ## 1-byte Spill
	jmp	LBB26_8
LBB26_8:
	movq	-72(%rbp), %rdi
Ltmp99:
	movb	-129(%rbp), %al         ## 1-byte Reload
	movsbl	%al, %r9d
	movq	-88(%rbp), %rsi         ## 8-byte Reload
	movq	-112(%rbp), %rdx        ## 8-byte Reload
	movq	-120(%rbp), %rcx        ## 8-byte Reload
	movq	-128(%rbp), %r8         ## 8-byte Reload
	callq	__ZNSt3__116__pad_and_outputIcNS_11char_traitsIcEEEENS_19ostreambuf_iteratorIT_T0_EES6_PKS4_S8_S8_RNS_8ios_baseES4_
Ltmp100:
	movq	%rax, -144(%rbp)        ## 8-byte Spill
	jmp	LBB26_9
LBB26_9:
	movq	-144(%rbp), %rax        ## 8-byte Reload
	movq	%rax, -64(%rbp)
	leaq	-64(%rbp), %rdi
	callq	__ZNKSt3__119ostreambuf_iteratorIcNS_11char_traitsIcEEE6failedEv
	testb	$1, %al
	jne	LBB26_10
	jmp	LBB26_14
LBB26_10:
	movq	-8(%rbp), %rax
	movq	(%rax), %rcx
	movq	-24(%rcx), %rcx
	addq	%rcx, %rax
Ltmp101:
	movl	$5, %esi
	movq	%rax, %rdi
	callq	__ZNSt3__19basic_iosIcNS_11char_traitsIcEEE8setstateEj
Ltmp102:
	jmp	LBB26_11
LBB26_11:
	jmp	LBB26_14
LBB26_12:
Ltmp108:
	movl	%edx, %ecx
	movq	%rax, -48(%rbp)
	movl	%ecx, -52(%rbp)
	jmp	LBB26_18
LBB26_13:
Ltmp103:
	movl	%edx, %ecx
	movq	%rax, -48(%rbp)
	movl	%ecx, -52(%rbp)
Ltmp104:
	leaq	-40(%rbp), %rdi
	callq	__ZNSt3__113basic_ostreamIcNS_11char_traitsIcEEE6sentryD1Ev
Ltmp105:
	jmp	LBB26_17
LBB26_14:
	jmp	LBB26_15
LBB26_15:
Ltmp106:
	leaq	-40(%rbp), %rdi
	callq	__ZNSt3__113basic_ostreamIcNS_11char_traitsIcEEE6sentryD1Ev
Ltmp107:
	jmp	LBB26_16
LBB26_16:
	jmp	LBB26_20
LBB26_17:
	jmp	LBB26_18
LBB26_18:
	movq	-48(%rbp), %rdi
	callq	___cxa_begin_catch
	movq	-8(%rbp), %rdi
	movq	(%rdi), %rcx
	movq	-24(%rcx), %rcx
	addq	%rcx, %rdi
Ltmp109:
	movq	%rax, -152(%rbp)        ## 8-byte Spill
	callq	__ZNSt3__18ios_base33__set_badbit_and_consider_rethrowEv
Ltmp110:
	jmp	LBB26_19
LBB26_19:
	callq	___cxa_end_catch
LBB26_20:
	movq	-8(%rbp), %rax
	addq	$160, %rsp
	popq	%rbp
	retq
LBB26_21:
Ltmp111:
	movl	%edx, %ecx
	movq	%rax, -48(%rbp)
	movl	%ecx, -52(%rbp)
Ltmp112:
	callq	___cxa_end_catch
Ltmp113:
	jmp	LBB26_22
LBB26_22:
	jmp	LBB26_23
LBB26_23:
	movq	-48(%rbp), %rdi
	callq	__Unwind_Resume
	ud2
LBB26_24:
Ltmp114:
	movq	%rax, %rdi
	movq	%rdx, -160(%rbp)        ## 8-byte Spill
	callq	___clang_call_terminate
Lfunc_end5:
	.cfi_endproc
	.section	__TEXT,__gcc_except_tab
	.p2align	2
GCC_except_table26:
Lexception5:
	.byte	255                     ## @LPStart Encoding = omit
	.byte	155                     ## @TType Encoding = indirect pcrel sdata4
	.uleb128 Lttbase5-Lttbaseref5
Lttbaseref5:
	.byte	1                       ## Call site Encoding = uleb128
	.uleb128 Lcst_end5-Lcst_begin5
Lcst_begin5:
	.uleb128 Ltmp91-Lfunc_begin5    ## >> Call Site 1 <<
	.uleb128 Ltmp92-Ltmp91          ##   Call between Ltmp91 and Ltmp92
	.uleb128 Ltmp108-Lfunc_begin5   ##     jumps to Ltmp108
	.byte	1                       ##   On action: 1
	.uleb128 Ltmp93-Lfunc_begin5    ## >> Call Site 2 <<
	.uleb128 Ltmp102-Ltmp93         ##   Call between Ltmp93 and Ltmp102
	.uleb128 Ltmp103-Lfunc_begin5   ##     jumps to Ltmp103
	.byte	1                       ##   On action: 1
	.uleb128 Ltmp104-Lfunc_begin5   ## >> Call Site 3 <<
	.uleb128 Ltmp105-Ltmp104        ##   Call between Ltmp104 and Ltmp105
	.uleb128 Ltmp114-Lfunc_begin5   ##     jumps to Ltmp114
	.byte	1                       ##   On action: 1
	.uleb128 Ltmp106-Lfunc_begin5   ## >> Call Site 4 <<
	.uleb128 Ltmp107-Ltmp106        ##   Call between Ltmp106 and Ltmp107
	.uleb128 Ltmp108-Lfunc_begin5   ##     jumps to Ltmp108
	.byte	1                       ##   On action: 1
	.uleb128 Ltmp107-Lfunc_begin5   ## >> Call Site 5 <<
	.uleb128 Ltmp109-Ltmp107        ##   Call between Ltmp107 and Ltmp109
	.byte	0                       ##     has no landing pad
	.byte	0                       ##   On action: cleanup
	.uleb128 Ltmp109-Lfunc_begin5   ## >> Call Site 6 <<
	.uleb128 Ltmp110-Ltmp109        ##   Call between Ltmp109 and Ltmp110
	.uleb128 Ltmp111-Lfunc_begin5   ##     jumps to Ltmp111
	.byte	0                       ##   On action: cleanup
	.uleb128 Ltmp110-Lfunc_begin5   ## >> Call Site 7 <<
	.uleb128 Ltmp112-Ltmp110        ##   Call between Ltmp110 and Ltmp112
	.byte	0                       ##     has no landing pad
	.byte	0                       ##   On action: cleanup
	.uleb128 Ltmp112-Lfunc_begin5   ## >> Call Site 8 <<
	.uleb128 Ltmp113-Ltmp112        ##   Call between Ltmp112 and Ltmp113
	.uleb128 Ltmp114-Lfunc_begin5   ##     jumps to Ltmp114
	.byte	1                       ##   On action: 1
	.uleb128 Ltmp113-Lfunc_begin5   ## >> Call Site 9 <<
	.uleb128 Lfunc_end5-Ltmp113     ##   Call between Ltmp113 and Lfunc_end5
	.byte	0                       ##     has no landing pad
	.byte	0                       ##   On action: cleanup
Lcst_end5:
	.byte	1                       ## >> Action Record 1 <<
                                        ##   Catch TypeInfo 1
	.byte	0                       ##   No further actions
	.p2align	2
                                        ## >> Catch TypeInfos <<
	.long	0                       ## TypeInfo 1
Lttbase5:
	.p2align	2
                                        ## -- End function
	.section	__TEXT,__text,regular,pure_instructions
	.p2align	4, 0x90         ## -- Begin function _ZNKSt3__113basic_ostreamIcNS_11char_traitsIcEEE6sentrycvbEv
__ZNKSt3__113basic_ostreamIcNS_11char_traitsIcEEE6sentrycvbEv: ## @_ZNKSt3__113basic_ostreamIcNS_11char_traitsIcEEE6sentrycvbEv
	.cfi_startproc
## %bb.0:
	pushq	%rbp
	.cfi_def_cfa_offset 16
	.cfi_offset %rbp, -16
	movq	%rsp, %rbp
	.cfi_def_cfa_register %rbp
	movq	%rdi, -8(%rbp)
	movq	-8(%rbp), %rdi
	movb	(%rdi), %al
	andb	$1, %al
	movzbl	%al, %eax
	popq	%rbp
	retq
	.cfi_endproc
                                        ## -- End function
	.private_extern	__ZNSt3__116__pad_and_outputIcNS_11char_traitsIcEEEENS_19ostreambuf_iteratorIT_T0_EES6_PKS4_S8_S8_RNS_8ios_baseES4_ ## -- Begin function _ZNSt3__116__pad_and_outputIcNS_11char_traitsIcEEEENS_19ostreambuf_iteratorIT_T0_EES6_PKS4_S8_S8_RNS_8ios_baseES4_
	.globl	__ZNSt3__116__pad_and_outputIcNS_11char_traitsIcEEEENS_19ostreambuf_iteratorIT_T0_EES6_PKS4_S8_S8_RNS_8ios_baseES4_
	.weak_definition	__ZNSt3__116__pad_and_outputIcNS_11char_traitsIcEEEENS_19ostreambuf_iteratorIT_T0_EES6_PKS4_S8_S8_RNS_8ios_baseES4_
	.p2align	4, 0x90
__ZNSt3__116__pad_and_outputIcNS_11char_traitsIcEEEENS_19ostreambuf_iteratorIT_T0_EES6_PKS4_S8_S8_RNS_8ios_baseES4_: ## @_ZNSt3__116__pad_and_outputIcNS_11char_traitsIcEEEENS_19ostreambuf_iteratorIT_T0_EES6_PKS4_S8_S8_RNS_8ios_baseES4_
Lfunc_begin6:
	.cfi_startproc
	.cfi_personality 155, ___gxx_personality_v0
	.cfi_lsda 16, Lexception6
## %bb.0:
	pushq	%rbp
	.cfi_def_cfa_offset 16
	.cfi_offset %rbp, -16
	movq	%rsp, %rbp
	.cfi_def_cfa_register %rbp
	subq	$240, %rsp
	movb	%r9b, %al
	movq	%rdi, -16(%rbp)
	movq	%rsi, -24(%rbp)
	movq	%rdx, -32(%rbp)
	movq	%rcx, -40(%rbp)
	movq	%r8, -48(%rbp)
	movb	%al, -49(%rbp)
	movq	-16(%rbp), %rcx
	movq	%rcx, -168(%rbp)        ## 8-byte Spill
	callq	__ZNSt3__1L15__get_nullptr_tEv
	movq	%rax, -64(%rbp)
	leaq	-64(%rbp), %rdi
	callq	__ZNKSt3__19nullptr_tcvPT_INS_15basic_streambufIcNS_11char_traitsIcEEEEEEv
	movq	-168(%rbp), %rcx        ## 8-byte Reload
	cmpq	%rax, %rcx
	jne	LBB28_2
## %bb.1:
	movq	-16(%rbp), %rax
	movq	%rax, -8(%rbp)
	jmp	LBB28_25
LBB28_2:
	movq	-40(%rbp), %rax
	movq	-24(%rbp), %rcx
	subq	%rcx, %rax
	movq	%rax, -72(%rbp)
	movq	-48(%rbp), %rdi
	callq	__ZNKSt3__18ios_base5widthEv
	movq	%rax, -80(%rbp)
	movq	-80(%rbp), %rax
	cmpq	-72(%rbp), %rax
	jle	LBB28_4
## %bb.3:
	movq	-72(%rbp), %rax
	movq	-80(%rbp), %rcx
	subq	%rax, %rcx
	movq	%rcx, -80(%rbp)
	jmp	LBB28_5
LBB28_4:
	movq	$0, -80(%rbp)
LBB28_5:
	movq	-32(%rbp), %rax
	movq	-24(%rbp), %rcx
	subq	%rcx, %rax
	movq	%rax, -88(%rbp)
	cmpq	$0, -88(%rbp)
	jle	LBB28_9
## %bb.6:
	movq	-16(%rbp), %rdi
	movq	-24(%rbp), %rsi
	movq	-88(%rbp), %rdx
	callq	__ZNSt3__115basic_streambufIcNS_11char_traitsIcEEE5sputnEPKcl
	cmpq	-88(%rbp), %rax
	je	LBB28_8
## %bb.7:
	callq	__ZNSt3__1L15__get_nullptr_tEv
	movq	%rax, -96(%rbp)
	leaq	-96(%rbp), %rdi
	callq	__ZNKSt3__19nullptr_tcvPT_INS_15basic_streambufIcNS_11char_traitsIcEEEEEEv
	movq	%rax, -16(%rbp)
	movq	-16(%rbp), %rax
	movq	%rax, -8(%rbp)
	jmp	LBB28_25
LBB28_8:
	jmp	LBB28_9
LBB28_9:
	cmpq	$0, -80(%rbp)
	jle	LBB28_20
## %bb.10:
	movq	-80(%rbp), %rsi
	movsbl	-49(%rbp), %edx
	leaq	-120(%rbp), %rax
	movq	%rax, %rdi
	movq	%rax, -176(%rbp)        ## 8-byte Spill
	callq	__ZNSt3__112basic_stringIcNS_11char_traitsIcEENS_9allocatorIcEEEC1Emc
	movq	-16(%rbp), %rdi
	movq	-176(%rbp), %rax        ## 8-byte Reload
	movq	%rdi, -184(%rbp)        ## 8-byte Spill
	movq	%rax, %rdi
	callq	__ZNKSt3__112basic_stringIcNS_11char_traitsIcEENS_9allocatorIcEEE4dataEv
	movq	-80(%rbp), %rdx
Ltmp115:
	movq	-184(%rbp), %rdi        ## 8-byte Reload
	movq	%rax, %rsi
	callq	__ZNSt3__115basic_streambufIcNS_11char_traitsIcEEE5sputnEPKcl
Ltmp116:
	movq	%rax, -192(%rbp)        ## 8-byte Spill
	jmp	LBB28_11
LBB28_11:
	movq	-192(%rbp), %rax        ## 8-byte Reload
	cmpq	-80(%rbp), %rax
	je	LBB28_16
## %bb.12:
Ltmp117:
	callq	__ZNSt3__1L15__get_nullptr_tEv
Ltmp118:
	movq	%rax, -200(%rbp)        ## 8-byte Spill
	jmp	LBB28_13
LBB28_13:
	movq	-200(%rbp), %rax        ## 8-byte Reload
	movq	%rax, -144(%rbp)
Ltmp119:
	leaq	-144(%rbp), %rdi
	callq	__ZNKSt3__19nullptr_tcvPT_INS_15basic_streambufIcNS_11char_traitsIcEEEEEEv
Ltmp120:
	movq	%rax, -208(%rbp)        ## 8-byte Spill
	jmp	LBB28_14
LBB28_14:
	movq	-208(%rbp), %rax        ## 8-byte Reload
	movq	%rax, -16(%rbp)
	movq	-16(%rbp), %rcx
	movq	%rcx, -8(%rbp)
	movl	$1, -148(%rbp)
	jmp	LBB28_17
LBB28_15:
Ltmp121:
	movl	%edx, %ecx
	movq	%rax, -128(%rbp)
	movl	%ecx, -132(%rbp)
Ltmp122:
	leaq	-120(%rbp), %rdi
	callq	__ZNSt3__112basic_stringIcNS_11char_traitsIcEENS_9allocatorIcEEED1Ev
Ltmp123:
	jmp	LBB28_19
LBB28_16:
	movl	$0, -148(%rbp)
LBB28_17:
	leaq	-120(%rbp), %rdi
	callq	__ZNSt3__112basic_stringIcNS_11char_traitsIcEENS_9allocatorIcEEED1Ev
	movl	-148(%rbp), %eax
	testl	%eax, %eax
	movl	%eax, -212(%rbp)        ## 4-byte Spill
	je	LBB28_18
	jmp	LBB28_29
LBB28_29:
	movl	-212(%rbp), %eax        ## 4-byte Reload
	subl	$1, %eax
	movl	%eax, -216(%rbp)        ## 4-byte Spill
	je	LBB28_25
	jmp	LBB28_28
LBB28_18:
	jmp	LBB28_20
LBB28_19:
	jmp	LBB28_26
LBB28_20:
	movq	-40(%rbp), %rax
	movq	-32(%rbp), %rcx
	subq	%rcx, %rax
	movq	%rax, -88(%rbp)
	cmpq	$0, -88(%rbp)
	jle	LBB28_24
## %bb.21:
	movq	-16(%rbp), %rdi
	movq	-32(%rbp), %rsi
	movq	-88(%rbp), %rdx
	callq	__ZNSt3__115basic_streambufIcNS_11char_traitsIcEEE5sputnEPKcl
	cmpq	-88(%rbp), %rax
	je	LBB28_23
## %bb.22:
	callq	__ZNSt3__1L15__get_nullptr_tEv
	movq	%rax, -160(%rbp)
	leaq	-160(%rbp), %rdi
	callq	__ZNKSt3__19nullptr_tcvPT_INS_15basic_streambufIcNS_11char_traitsIcEEEEEEv
	movq	%rax, -16(%rbp)
	movq	-16(%rbp), %rax
	movq	%rax, -8(%rbp)
	jmp	LBB28_25
LBB28_23:
	jmp	LBB28_24
LBB28_24:
	xorl	%eax, %eax
	movl	%eax, %esi
	movq	-48(%rbp), %rdi
	callq	__ZNSt3__18ios_base5widthEl
	movq	-16(%rbp), %rsi
	movq	%rsi, -8(%rbp)
	movq	%rax, -224(%rbp)        ## 8-byte Spill
LBB28_25:
	movq	-8(%rbp), %rax
	addq	$240, %rsp
	popq	%rbp
	retq
LBB28_26:
	movq	-128(%rbp), %rdi
	callq	__Unwind_Resume
	ud2
LBB28_27:
Ltmp124:
	movq	%rax, %rdi
	movq	%rdx, -232(%rbp)        ## 8-byte Spill
	callq	___clang_call_terminate
LBB28_28:
	ud2
Lfunc_end6:
	.cfi_endproc
	.section	__TEXT,__gcc_except_tab
	.p2align	2
GCC_except_table28:
Lexception6:
	.byte	255                     ## @LPStart Encoding = omit
	.byte	155                     ## @TType Encoding = indirect pcrel sdata4
	.uleb128 Lttbase6-Lttbaseref6
Lttbaseref6:
	.byte	1                       ## Call site Encoding = uleb128
	.uleb128 Lcst_end6-Lcst_begin6
Lcst_begin6:
	.uleb128 Lfunc_begin6-Lfunc_begin6 ## >> Call Site 1 <<
	.uleb128 Ltmp115-Lfunc_begin6   ##   Call between Lfunc_begin6 and Ltmp115
	.byte	0                       ##     has no landing pad
	.byte	0                       ##   On action: cleanup
	.uleb128 Ltmp115-Lfunc_begin6   ## >> Call Site 2 <<
	.uleb128 Ltmp120-Ltmp115        ##   Call between Ltmp115 and Ltmp120
	.uleb128 Ltmp121-Lfunc_begin6   ##     jumps to Ltmp121
	.byte	0                       ##   On action: cleanup
	.uleb128 Ltmp122-Lfunc_begin6   ## >> Call Site 3 <<
	.uleb128 Ltmp123-Ltmp122        ##   Call between Ltmp122 and Ltmp123
	.uleb128 Ltmp124-Lfunc_begin6   ##     jumps to Ltmp124
	.byte	1                       ##   On action: 1
	.uleb128 Ltmp123-Lfunc_begin6   ## >> Call Site 4 <<
	.uleb128 Lfunc_end6-Ltmp123     ##   Call between Ltmp123 and Lfunc_end6
	.byte	0                       ##     has no landing pad
	.byte	0                       ##   On action: cleanup
Lcst_end6:
	.byte	1                       ## >> Action Record 1 <<
                                        ##   Catch TypeInfo 1
	.byte	0                       ##   No further actions
	.p2align	2
                                        ## >> Catch TypeInfos <<
	.long	0                       ## TypeInfo 1
Lttbase6:
	.p2align	2
                                        ## -- End function
	.section	__TEXT,__text,regular,pure_instructions
	.p2align	4, 0x90         ## -- Begin function _ZNSt3__119ostreambuf_iteratorIcNS_11char_traitsIcEEEC1ERNS_13basic_ostreamIcS2_EE
__ZNSt3__119ostreambuf_iteratorIcNS_11char_traitsIcEEEC1ERNS_13basic_ostreamIcS2_EE: ## @_ZNSt3__119ostreambuf_iteratorIcNS_11char_traitsIcEEEC1ERNS_13basic_ostreamIcS2_EE
	.cfi_startproc
## %bb.0:
	pushq	%rbp
	.cfi_def_cfa_offset 16
	.cfi_offset %rbp, -16
	movq	%rsp, %rbp
	.cfi_def_cfa_register %rbp
	subq	$16, %rsp
	movq	%rdi, -8(%rbp)
	movq	%rsi, -16(%rbp)
	movq	-8(%rbp), %rdi
	movq	-16(%rbp), %rsi
	callq	__ZNSt3__119ostreambuf_iteratorIcNS_11char_traitsIcEEEC2ERNS_13basic_ostreamIcS2_EE
	addq	$16, %rsp
	popq	%rbp
	retq
	.cfi_endproc
                                        ## -- End function
	.p2align	4, 0x90         ## -- Begin function _ZNKSt3__18ios_base5flagsEv
__ZNKSt3__18ios_base5flagsEv:           ## @_ZNKSt3__18ios_base5flagsEv
	.cfi_startproc
## %bb.0:
	pushq	%rbp
	.cfi_def_cfa_offset 16
	.cfi_offset %rbp, -16
	movq	%rsp, %rbp
	.cfi_def_cfa_register %rbp
	movq	%rdi, -8(%rbp)
	movq	-8(%rbp), %rdi
	movl	8(%rdi), %eax
	popq	%rbp
	retq
	.cfi_endproc
                                        ## -- End function
	.p2align	4, 0x90         ## -- Begin function _ZNKSt3__19basic_iosIcNS_11char_traitsIcEEE4fillEv
__ZNKSt3__19basic_iosIcNS_11char_traitsIcEEE4fillEv: ## @_ZNKSt3__19basic_iosIcNS_11char_traitsIcEEE4fillEv
	.cfi_startproc
## %bb.0:
	pushq	%rbp
	.cfi_def_cfa_offset 16
	.cfi_offset %rbp, -16
	movq	%rsp, %rbp
	.cfi_def_cfa_register %rbp
	subq	$16, %rsp
	movq	%rdi, -8(%rbp)
	movq	-8(%rbp), %rdi
	movq	%rdi, -16(%rbp)         ## 8-byte Spill
	callq	__ZNSt3__111char_traitsIcE3eofEv
	movq	-16(%rbp), %rdi         ## 8-byte Reload
	movl	144(%rdi), %esi
	movl	%eax, %edi
	callq	__ZNSt3__111char_traitsIcE11eq_int_typeEii
	testb	$1, %al
	jne	LBB31_1
	jmp	LBB31_2
LBB31_1:
	movq	-16(%rbp), %rdi         ## 8-byte Reload
	movl	$32, %esi
	callq	__ZNKSt3__19basic_iosIcNS_11char_traitsIcEEE5widenEc
	movsbl	%al, %esi
	movq	-16(%rbp), %rdi         ## 8-byte Reload
	movl	%esi, 144(%rdi)
LBB31_2:
	movq	-16(%rbp), %rax         ## 8-byte Reload
	movl	144(%rax), %ecx
	movb	%cl, %dl
	movsbl	%dl, %ecx
	movl	%ecx, %eax
	addq	$16, %rsp
	popq	%rbp
	retq
	.cfi_endproc
                                        ## -- End function
	.p2align	4, 0x90         ## -- Begin function _ZNKSt3__119ostreambuf_iteratorIcNS_11char_traitsIcEEE6failedEv
__ZNKSt3__119ostreambuf_iteratorIcNS_11char_traitsIcEEE6failedEv: ## @_ZNKSt3__119ostreambuf_iteratorIcNS_11char_traitsIcEEE6failedEv
	.cfi_startproc
## %bb.0:
	pushq	%rbp
	.cfi_def_cfa_offset 16
	.cfi_offset %rbp, -16
	movq	%rsp, %rbp
	.cfi_def_cfa_register %rbp
	movq	%rdi, -8(%rbp)
	movq	-8(%rbp), %rdi
	cmpq	$0, (%rdi)
	sete	%al
	andb	$1, %al
	movzbl	%al, %eax
	popq	%rbp
	retq
	.cfi_endproc
                                        ## -- End function
	.p2align	4, 0x90         ## -- Begin function _ZNSt3__19basic_iosIcNS_11char_traitsIcEEE8setstateEj
__ZNSt3__19basic_iosIcNS_11char_traitsIcEEE8setstateEj: ## @_ZNSt3__19basic_iosIcNS_11char_traitsIcEEE8setstateEj
	.cfi_startproc
## %bb.0:
	pushq	%rbp
	.cfi_def_cfa_offset 16
	.cfi_offset %rbp, -16
	movq	%rsp, %rbp
	.cfi_def_cfa_register %rbp
	subq	$16, %rsp
	movq	%rdi, -8(%rbp)
	movl	%esi, -12(%rbp)
	movq	-8(%rbp), %rdi
	movl	-12(%rbp), %esi
	callq	__ZNSt3__18ios_base8setstateEj
	addq	$16, %rsp
	popq	%rbp
	retq
	.cfi_endproc
                                        ## -- End function
	.p2align	4, 0x90         ## -- Begin function _ZNSt3__1L15__get_nullptr_tEv
__ZNSt3__1L15__get_nullptr_tEv:         ## @_ZNSt3__1L15__get_nullptr_tEv
	.cfi_startproc
## %bb.0:
	pushq	%rbp
	.cfi_def_cfa_offset 16
	.cfi_offset %rbp, -16
	movq	%rsp, %rbp
	.cfi_def_cfa_register %rbp
	subq	$16, %rsp
	leaq	-8(%rbp), %rdi
	movq	$-1, %rsi
	callq	__ZNSt3__19nullptr_tC1EMNS0_5__natEi
	movq	-8(%rbp), %rax
	addq	$16, %rsp
	popq	%rbp
	retq
	.cfi_endproc
                                        ## -- End function
	.p2align	4, 0x90         ## -- Begin function _ZNKSt3__19nullptr_tcvPT_INS_15basic_streambufIcNS_11char_traitsIcEEEEEEv
__ZNKSt3__19nullptr_tcvPT_INS_15basic_streambufIcNS_11char_traitsIcEEEEEEv: ## @_ZNKSt3__19nullptr_tcvPT_INS_15basic_streambufIcNS_11char_traitsIcEEEEEEv
	.cfi_startproc
## %bb.0:
	pushq	%rbp
	.cfi_def_cfa_offset 16
	.cfi_offset %rbp, -16
	movq	%rsp, %rbp
	.cfi_def_cfa_register %rbp
	xorl	%eax, %eax
                                        ## kill: def $rax killed $eax
	movq	%rdi, -8(%rbp)
	popq	%rbp
	retq
	.cfi_endproc
                                        ## -- End function
	.p2align	4, 0x90         ## -- Begin function _ZNKSt3__18ios_base5widthEv
__ZNKSt3__18ios_base5widthEv:           ## @_ZNKSt3__18ios_base5widthEv
	.cfi_startproc
## %bb.0:
	pushq	%rbp
	.cfi_def_cfa_offset 16
	.cfi_offset %rbp, -16
	movq	%rsp, %rbp
	.cfi_def_cfa_register %rbp
	movq	%rdi, -8(%rbp)
	movq	-8(%rbp), %rdi
	movq	24(%rdi), %rax
	popq	%rbp
	retq
	.cfi_endproc
                                        ## -- End function
	.p2align	4, 0x90         ## -- Begin function _ZNSt3__115basic_streambufIcNS_11char_traitsIcEEE5sputnEPKcl
__ZNSt3__115basic_streambufIcNS_11char_traitsIcEEE5sputnEPKcl: ## @_ZNSt3__115basic_streambufIcNS_11char_traitsIcEEE5sputnEPKcl
	.cfi_startproc
## %bb.0:
	pushq	%rbp
	.cfi_def_cfa_offset 16
	.cfi_offset %rbp, -16
	movq	%rsp, %rbp
	.cfi_def_cfa_register %rbp
	subq	$32, %rsp
	movq	%rdi, -8(%rbp)
	movq	%rsi, -16(%rbp)
	movq	%rdx, -24(%rbp)
	movq	-8(%rbp), %rdx
	movq	-16(%rbp), %rsi
	movq	-24(%rbp), %rdi
	movq	(%rdx), %rax
	movq	%rdi, -32(%rbp)         ## 8-byte Spill
	movq	%rdx, %rdi
	movq	-32(%rbp), %rdx         ## 8-byte Reload
	callq	*96(%rax)
	addq	$32, %rsp
	popq	%rbp
	retq
	.cfi_endproc
                                        ## -- End function
	.p2align	4, 0x90         ## -- Begin function _ZNSt3__112basic_stringIcNS_11char_traitsIcEENS_9allocatorIcEEEC1Emc
__ZNSt3__112basic_stringIcNS_11char_traitsIcEENS_9allocatorIcEEEC1Emc: ## @_ZNSt3__112basic_stringIcNS_11char_traitsIcEENS_9allocatorIcEEEC1Emc
	.cfi_startproc
## %bb.0:
	pushq	%rbp
	.cfi_def_cfa_offset 16
	.cfi_offset %rbp, -16
	movq	%rsp, %rbp
	.cfi_def_cfa_register %rbp
	subq	$32, %rsp
	movb	%dl, %al
	movq	%rdi, -8(%rbp)
	movq	%rsi, -16(%rbp)
	movb	%al, -17(%rbp)
	movq	-8(%rbp), %rdi
	movq	-16(%rbp), %rsi
	movsbl	-17(%rbp), %edx
	callq	__ZNSt3__112basic_stringIcNS_11char_traitsIcEENS_9allocatorIcEEEC2Emc
	addq	$32, %rsp
	popq	%rbp
	retq
	.cfi_endproc
                                        ## -- End function
	.p2align	4, 0x90         ## -- Begin function _ZNKSt3__112basic_stringIcNS_11char_traitsIcEENS_9allocatorIcEEE4dataEv
__ZNKSt3__112basic_stringIcNS_11char_traitsIcEENS_9allocatorIcEEE4dataEv: ## @_ZNKSt3__112basic_stringIcNS_11char_traitsIcEENS_9allocatorIcEEE4dataEv
	.cfi_startproc
## %bb.0:
	pushq	%rbp
	.cfi_def_cfa_offset 16
	.cfi_offset %rbp, -16
	movq	%rsp, %rbp
	.cfi_def_cfa_register %rbp
	subq	$16, %rsp
	movq	%rdi, -8(%rbp)
	movq	-8(%rbp), %rdi
	callq	__ZNKSt3__112basic_stringIcNS_11char_traitsIcEENS_9allocatorIcEEE13__get_pointerEv
	movq	%rax, %rdi
	callq	__ZNSt3__1L16__to_raw_pointerIKcEEPT_S3_
	addq	$16, %rsp
	popq	%rbp
	retq
	.cfi_endproc
                                        ## -- End function
	.p2align	4, 0x90         ## -- Begin function _ZNSt3__18ios_base5widthEl
__ZNSt3__18ios_base5widthEl:            ## @_ZNSt3__18ios_base5widthEl
	.cfi_startproc
## %bb.0:
	pushq	%rbp
	.cfi_def_cfa_offset 16
	.cfi_offset %rbp, -16
	movq	%rsp, %rbp
	.cfi_def_cfa_register %rbp
	movq	%rdi, -8(%rbp)
	movq	%rsi, -16(%rbp)
	movq	-8(%rbp), %rsi
	movq	24(%rsi), %rdi
	movq	%rdi, -24(%rbp)
	movq	-16(%rbp), %rdi
	movq	%rdi, 24(%rsi)
	movq	-24(%rbp), %rax
	popq	%rbp
	retq
	.cfi_endproc
                                        ## -- End function
	.p2align	4, 0x90         ## -- Begin function _ZNSt3__19nullptr_tC1EMNS0_5__natEi
__ZNSt3__19nullptr_tC1EMNS0_5__natEi:   ## @_ZNSt3__19nullptr_tC1EMNS0_5__natEi
	.cfi_startproc
## %bb.0:
	pushq	%rbp
	.cfi_def_cfa_offset 16
	.cfi_offset %rbp, -16
	movq	%rsp, %rbp
	.cfi_def_cfa_register %rbp
	subq	$16, %rsp
	movq	%rdi, -8(%rbp)
	movq	%rsi, -16(%rbp)
	movq	-8(%rbp), %rdi
	movq	-16(%rbp), %rsi
	callq	__ZNSt3__19nullptr_tC2EMNS0_5__natEi
	addq	$16, %rsp
	popq	%rbp
	retq
	.cfi_endproc
                                        ## -- End function
	.p2align	4, 0x90         ## -- Begin function _ZNSt3__19nullptr_tC2EMNS0_5__natEi
__ZNSt3__19nullptr_tC2EMNS0_5__natEi:   ## @_ZNSt3__19nullptr_tC2EMNS0_5__natEi
	.cfi_startproc
## %bb.0:
	pushq	%rbp
	.cfi_def_cfa_offset 16
	.cfi_offset %rbp, -16
	movq	%rsp, %rbp
	.cfi_def_cfa_register %rbp
	movq	%rdi, -8(%rbp)
	movq	%rsi, -16(%rbp)
	movq	-8(%rbp), %rsi
	movq	$0, (%rsi)
	popq	%rbp
	retq
	.cfi_endproc
                                        ## -- End function
	.p2align	4, 0x90         ## -- Begin function _ZNSt3__112basic_stringIcNS_11char_traitsIcEENS_9allocatorIcEEEC2Emc
__ZNSt3__112basic_stringIcNS_11char_traitsIcEENS_9allocatorIcEEEC2Emc: ## @_ZNSt3__112basic_stringIcNS_11char_traitsIcEENS_9allocatorIcEEEC2Emc
	.cfi_startproc
## %bb.0:
	pushq	%rbp
	.cfi_def_cfa_offset 16
	.cfi_offset %rbp, -16
	movq	%rsp, %rbp
	.cfi_def_cfa_register %rbp
	subq	$32, %rsp
	movb	%dl, %al
	movq	%rdi, -8(%rbp)
	movq	%rsi, -16(%rbp)
	movb	%al, -17(%rbp)
	movq	-8(%rbp), %rsi
	movq	%rsi, %rdi
	movq	%rsi, -32(%rbp)         ## 8-byte Spill
	callq	__ZNSt3__117__compressed_pairINS_12basic_stringIcNS_11char_traitsIcEENS_9allocatorIcEEE5__repES5_EC1Ev
	movq	-16(%rbp), %rsi
	movq	-32(%rbp), %rdi         ## 8-byte Reload
	movsbl	-17(%rbp), %edx
	callq	__ZNSt3__112basic_stringIcNS_11char_traitsIcEENS_9allocatorIcEEE6__initEmc
	addq	$32, %rsp
	popq	%rbp
	retq
	.cfi_endproc
                                        ## -- End function
	.p2align	4, 0x90         ## -- Begin function _ZNSt3__1L16__to_raw_pointerIKcEEPT_S3_
__ZNSt3__1L16__to_raw_pointerIKcEEPT_S3_: ## @_ZNSt3__1L16__to_raw_pointerIKcEEPT_S3_
	.cfi_startproc
## %bb.0:
	pushq	%rbp
	.cfi_def_cfa_offset 16
	.cfi_offset %rbp, -16
	movq	%rsp, %rbp
	.cfi_def_cfa_register %rbp
	movq	%rdi, -8(%rbp)
	movq	-8(%rbp), %rax
	popq	%rbp
	retq
	.cfi_endproc
                                        ## -- End function
	.p2align	4, 0x90         ## -- Begin function _ZNKSt3__112basic_stringIcNS_11char_traitsIcEENS_9allocatorIcEEE13__get_pointerEv
__ZNKSt3__112basic_stringIcNS_11char_traitsIcEENS_9allocatorIcEEE13__get_pointerEv: ## @_ZNKSt3__112basic_stringIcNS_11char_traitsIcEENS_9allocatorIcEEE13__get_pointerEv
	.cfi_startproc
## %bb.0:
	pushq	%rbp
	.cfi_def_cfa_offset 16
	.cfi_offset %rbp, -16
	movq	%rsp, %rbp
	.cfi_def_cfa_register %rbp
	subq	$32, %rsp
	movq	%rdi, -8(%rbp)
	movq	-8(%rbp), %rdi
	movq	%rdi, -16(%rbp)         ## 8-byte Spill
	callq	__ZNKSt3__112basic_stringIcNS_11char_traitsIcEENS_9allocatorIcEEE9__is_longEv
	testb	$1, %al
	jne	LBB45_1
	jmp	LBB45_2
LBB45_1:
	movq	-16(%rbp), %rdi         ## 8-byte Reload
	callq	__ZNKSt3__112basic_stringIcNS_11char_traitsIcEENS_9allocatorIcEEE18__get_long_pointerEv
	movq	%rax, -24(%rbp)         ## 8-byte Spill
	jmp	LBB45_3
LBB45_2:
	movq	-16(%rbp), %rdi         ## 8-byte Reload
	callq	__ZNKSt3__112basic_stringIcNS_11char_traitsIcEENS_9allocatorIcEEE19__get_short_pointerEv
	movq	%rax, -24(%rbp)         ## 8-byte Spill
LBB45_3:
	movq	-24(%rbp), %rax         ## 8-byte Reload
	addq	$32, %rsp
	popq	%rbp
	retq
	.cfi_endproc
                                        ## -- End function
	.p2align	4, 0x90         ## -- Begin function _ZNKSt3__112basic_stringIcNS_11char_traitsIcEENS_9allocatorIcEEE18__get_long_pointerEv
__ZNKSt3__112basic_stringIcNS_11char_traitsIcEENS_9allocatorIcEEE18__get_long_pointerEv: ## @_ZNKSt3__112basic_stringIcNS_11char_traitsIcEENS_9allocatorIcEEE18__get_long_pointerEv
	.cfi_startproc
## %bb.0:
	pushq	%rbp
	.cfi_def_cfa_offset 16
	.cfi_offset %rbp, -16
	movq	%rsp, %rbp
	.cfi_def_cfa_register %rbp
	subq	$16, %rsp
	movq	%rdi, -8(%rbp)
	movq	-8(%rbp), %rdi
	callq	__ZNKSt3__117__compressed_pairINS_12basic_stringIcNS_11char_traitsIcEENS_9allocatorIcEEE5__repES5_E5firstEv
	movq	16(%rax), %rax
	addq	$16, %rsp
	popq	%rbp
	retq
	.cfi_endproc
                                        ## -- End function
	.p2align	4, 0x90         ## -- Begin function _ZNKSt3__112basic_stringIcNS_11char_traitsIcEENS_9allocatorIcEEE19__get_short_pointerEv
__ZNKSt3__112basic_stringIcNS_11char_traitsIcEENS_9allocatorIcEEE19__get_short_pointerEv: ## @_ZNKSt3__112basic_stringIcNS_11char_traitsIcEENS_9allocatorIcEEE19__get_short_pointerEv
	.cfi_startproc
## %bb.0:
	pushq	%rbp
	.cfi_def_cfa_offset 16
	.cfi_offset %rbp, -16
	movq	%rsp, %rbp
	.cfi_def_cfa_register %rbp
	subq	$16, %rsp
	movq	%rdi, -8(%rbp)
	movq	-8(%rbp), %rdi
	callq	__ZNKSt3__117__compressed_pairINS_12basic_stringIcNS_11char_traitsIcEENS_9allocatorIcEEE5__repES5_E5firstEv
	addq	$1, %rax
	movq	%rax, %rdi
	callq	__ZNSt3__114pointer_traitsIPKcE10pointer_toERS1_
	addq	$16, %rsp
	popq	%rbp
	retq
	.cfi_endproc
                                        ## -- End function
	.p2align	4, 0x90         ## -- Begin function _ZNSt3__114pointer_traitsIPKcE10pointer_toERS1_
__ZNSt3__114pointer_traitsIPKcE10pointer_toERS1_: ## @_ZNSt3__114pointer_traitsIPKcE10pointer_toERS1_
	.cfi_startproc
## %bb.0:
	pushq	%rbp
	.cfi_def_cfa_offset 16
	.cfi_offset %rbp, -16
	movq	%rsp, %rbp
	.cfi_def_cfa_register %rbp
	subq	$16, %rsp
	movq	%rdi, -8(%rbp)
	movq	-8(%rbp), %rdi
	callq	__ZNSt3__1L9addressofIKcEEPT_RS2_
	addq	$16, %rsp
	popq	%rbp
	retq
	.cfi_endproc
                                        ## -- End function
	.p2align	4, 0x90         ## -- Begin function _ZNSt3__1L9addressofIKcEEPT_RS2_
__ZNSt3__1L9addressofIKcEEPT_RS2_:      ## @_ZNSt3__1L9addressofIKcEEPT_RS2_
	.cfi_startproc
## %bb.0:
	pushq	%rbp
	.cfi_def_cfa_offset 16
	.cfi_offset %rbp, -16
	movq	%rsp, %rbp
	.cfi_def_cfa_register %rbp
	movq	%rdi, -8(%rbp)
	movq	-8(%rbp), %rax
	popq	%rbp
	retq
	.cfi_endproc
                                        ## -- End function
	.p2align	4, 0x90         ## -- Begin function _ZNSt3__119ostreambuf_iteratorIcNS_11char_traitsIcEEEC2ERNS_13basic_ostreamIcS2_EE
__ZNSt3__119ostreambuf_iteratorIcNS_11char_traitsIcEEEC2ERNS_13basic_ostreamIcS2_EE: ## @_ZNSt3__119ostreambuf_iteratorIcNS_11char_traitsIcEEEC2ERNS_13basic_ostreamIcS2_EE
Lfunc_begin7:
	.cfi_startproc
	.cfi_personality 155, ___gxx_personality_v0
	.cfi_lsda 16, Lexception7
## %bb.0:
	pushq	%rbp
	.cfi_def_cfa_offset 16
	.cfi_offset %rbp, -16
	movq	%rsp, %rbp
	.cfi_def_cfa_register %rbp
	subq	$48, %rsp
	movq	%rdi, -8(%rbp)
	movq	%rsi, -16(%rbp)
	movq	-8(%rbp), %rsi
	movq	-16(%rbp), %rdi
	movq	(%rdi), %rax
	movq	-24(%rax), %rax
	addq	%rax, %rdi
Ltmp125:
	movq	%rsi, -40(%rbp)         ## 8-byte Spill
	callq	__ZNKSt3__19basic_iosIcNS_11char_traitsIcEEE5rdbufEv
Ltmp126:
	movq	%rax, -48(%rbp)         ## 8-byte Spill
	jmp	LBB50_1
LBB50_1:
	movq	-40(%rbp), %rax         ## 8-byte Reload
	movq	-48(%rbp), %rcx         ## 8-byte Reload
	movq	%rcx, (%rax)
	addq	$48, %rsp
	popq	%rbp
	retq
LBB50_2:
Ltmp127:
	movl	%edx, %ecx
	movq	%rax, -24(%rbp)
	movl	%ecx, -28(%rbp)
## %bb.3:
	movq	-24(%rbp), %rdi
	callq	___cxa_call_unexpected
Lfunc_end7:
	.cfi_endproc
	.section	__TEXT,__gcc_except_tab
	.p2align	2
GCC_except_table50:
Lexception7:
	.byte	255                     ## @LPStart Encoding = omit
	.byte	155                     ## @TType Encoding = indirect pcrel sdata4
	.uleb128 Lttbase7-Lttbaseref7
Lttbaseref7:
	.byte	1                       ## Call site Encoding = uleb128
	.uleb128 Lcst_end7-Lcst_begin7
Lcst_begin7:
	.uleb128 Ltmp125-Lfunc_begin7   ## >> Call Site 1 <<
	.uleb128 Ltmp126-Ltmp125        ##   Call between Ltmp125 and Ltmp126
	.uleb128 Ltmp127-Lfunc_begin7   ##     jumps to Ltmp127
	.byte	1                       ##   On action: 1
	.uleb128 Ltmp126-Lfunc_begin7   ## >> Call Site 2 <<
	.uleb128 Lfunc_end7-Ltmp126     ##   Call between Ltmp126 and Lfunc_end7
	.byte	0                       ##     has no landing pad
	.byte	0                       ##   On action: cleanup
Lcst_end7:
	.byte	127                     ## >> Action Record 1 <<
                                        ##   Filter TypeInfo -1
	.byte	0                       ##   No further actions
	.p2align	2
Lttbase7:
                                        ## >> Filter TypeInfos <<
	.byte	0
	.p2align	2
                                        ## -- End function
	.section	__TEXT,__text,regular,pure_instructions
	.p2align	4, 0x90         ## -- Begin function _ZNKSt3__19basic_iosIcNS_11char_traitsIcEEE5rdbufEv
__ZNKSt3__19basic_iosIcNS_11char_traitsIcEEE5rdbufEv: ## @_ZNKSt3__19basic_iosIcNS_11char_traitsIcEEE5rdbufEv
	.cfi_startproc
## %bb.0:
	pushq	%rbp
	.cfi_def_cfa_offset 16
	.cfi_offset %rbp, -16
	movq	%rsp, %rbp
	.cfi_def_cfa_register %rbp
	subq	$16, %rsp
	movq	%rdi, -8(%rbp)
	movq	-8(%rbp), %rdi
	callq	__ZNKSt3__18ios_base5rdbufEv
	addq	$16, %rsp
	popq	%rbp
	retq
	.cfi_endproc
                                        ## -- End function
	.p2align	4, 0x90         ## -- Begin function _ZNKSt3__18ios_base5rdbufEv
__ZNKSt3__18ios_base5rdbufEv:           ## @_ZNKSt3__18ios_base5rdbufEv
	.cfi_startproc
## %bb.0:
	pushq	%rbp
	.cfi_def_cfa_offset 16
	.cfi_offset %rbp, -16
	movq	%rsp, %rbp
	.cfi_def_cfa_register %rbp
	movq	%rdi, -8(%rbp)
	movq	-8(%rbp), %rdi
	movq	40(%rdi), %rax
	popq	%rbp
	retq
	.cfi_endproc
                                        ## -- End function
	.globl	__ZNSt3__111char_traitsIcE11eq_int_typeEii ## -- Begin function _ZNSt3__111char_traitsIcE11eq_int_typeEii
	.weak_definition	__ZNSt3__111char_traitsIcE11eq_int_typeEii
	.p2align	4, 0x90
__ZNSt3__111char_traitsIcE11eq_int_typeEii: ## @_ZNSt3__111char_traitsIcE11eq_int_typeEii
	.cfi_startproc
## %bb.0:
	pushq	%rbp
	.cfi_def_cfa_offset 16
	.cfi_offset %rbp, -16
	movq	%rsp, %rbp
	.cfi_def_cfa_register %rbp
	movl	%edi, -4(%rbp)
	movl	%esi, -8(%rbp)
	movl	-4(%rbp), %esi
	cmpl	-8(%rbp), %esi
	sete	%al
	andb	$1, %al
	movzbl	%al, %eax
	popq	%rbp
	retq
	.cfi_endproc
                                        ## -- End function
	.globl	__ZNSt3__111char_traitsIcE3eofEv ## -- Begin function _ZNSt3__111char_traitsIcE3eofEv
	.weak_definition	__ZNSt3__111char_traitsIcE3eofEv
	.p2align	4, 0x90
__ZNSt3__111char_traitsIcE3eofEv:       ## @_ZNSt3__111char_traitsIcE3eofEv
	.cfi_startproc
## %bb.0:
	pushq	%rbp
	.cfi_def_cfa_offset 16
	.cfi_offset %rbp, -16
	movq	%rsp, %rbp
	.cfi_def_cfa_register %rbp
	movl	$4294967295, %eax       ## imm = 0xFFFFFFFF
	popq	%rbp
	retq
	.cfi_endproc
                                        ## -- End function
	.p2align	4, 0x90         ## -- Begin function _ZNKSt3__19basic_iosIcNS_11char_traitsIcEEE5widenEc
__ZNKSt3__19basic_iosIcNS_11char_traitsIcEEE5widenEc: ## @_ZNKSt3__19basic_iosIcNS_11char_traitsIcEEE5widenEc
Lfunc_begin8:
	.cfi_startproc
	.cfi_personality 155, ___gxx_personality_v0
	.cfi_lsda 16, Lexception8
## %bb.0:
	pushq	%rbp
	.cfi_def_cfa_offset 16
	.cfi_offset %rbp, -16
	movq	%rsp, %rbp
	.cfi_def_cfa_register %rbp
	subq	$80, %rsp
	movb	%sil, %al
	movq	%rdi, -8(%rbp)
	movb	%al, -9(%rbp)
	movq	-8(%rbp), %rsi
	leaq	-24(%rbp), %rdi
	movq	%rdi, -48(%rbp)         ## 8-byte Spill
	callq	__ZNKSt3__18ios_base6getlocEv
Ltmp128:
	movq	-48(%rbp), %rdi         ## 8-byte Reload
	callq	__ZNSt3__1L9use_facetINS_5ctypeIcEEEERKT_RKNS_6localeE
Ltmp129:
	movq	%rax, -56(%rbp)         ## 8-byte Spill
	jmp	LBB55_1
LBB55_1:
	movsbl	-9(%rbp), %esi
Ltmp130:
	movq	-56(%rbp), %rdi         ## 8-byte Reload
	callq	__ZNKSt3__15ctypeIcE5widenEc
Ltmp131:
	movb	%al, -57(%rbp)          ## 1-byte Spill
	jmp	LBB55_2
LBB55_2:
	leaq	-24(%rbp), %rdi
	callq	__ZNSt3__16localeD1Ev
	movb	-57(%rbp), %al          ## 1-byte Reload
	movsbl	%al, %eax
	addq	$80, %rsp
	popq	%rbp
	retq
LBB55_3:
Ltmp132:
	movl	%edx, %ecx
	movq	%rax, -32(%rbp)
	movl	%ecx, -36(%rbp)
Ltmp133:
	leaq	-24(%rbp), %rdi
	callq	__ZNSt3__16localeD1Ev
Ltmp134:
	jmp	LBB55_4
LBB55_4:
	jmp	LBB55_5
LBB55_5:
	movq	-32(%rbp), %rdi
	callq	__Unwind_Resume
	ud2
LBB55_6:
Ltmp135:
	movq	%rax, %rdi
	movq	%rdx, -72(%rbp)         ## 8-byte Spill
	callq	___clang_call_terminate
Lfunc_end8:
	.cfi_endproc
	.section	__TEXT,__gcc_except_tab
	.p2align	2
GCC_except_table55:
Lexception8:
	.byte	255                     ## @LPStart Encoding = omit
	.byte	155                     ## @TType Encoding = indirect pcrel sdata4
	.uleb128 Lttbase8-Lttbaseref8
Lttbaseref8:
	.byte	1                       ## Call site Encoding = uleb128
	.uleb128 Lcst_end8-Lcst_begin8
Lcst_begin8:
	.uleb128 Lfunc_begin8-Lfunc_begin8 ## >> Call Site 1 <<
	.uleb128 Ltmp128-Lfunc_begin8   ##   Call between Lfunc_begin8 and Ltmp128
	.byte	0                       ##     has no landing pad
	.byte	0                       ##   On action: cleanup
	.uleb128 Ltmp128-Lfunc_begin8   ## >> Call Site 2 <<
	.uleb128 Ltmp131-Ltmp128        ##   Call between Ltmp128 and Ltmp131
	.uleb128 Ltmp132-Lfunc_begin8   ##     jumps to Ltmp132
	.byte	0                       ##   On action: cleanup
	.uleb128 Ltmp131-Lfunc_begin8   ## >> Call Site 3 <<
	.uleb128 Ltmp133-Ltmp131        ##   Call between Ltmp131 and Ltmp133
	.byte	0                       ##     has no landing pad
	.byte	0                       ##   On action: cleanup
	.uleb128 Ltmp133-Lfunc_begin8   ## >> Call Site 4 <<
	.uleb128 Ltmp134-Ltmp133        ##   Call between Ltmp133 and Ltmp134
	.uleb128 Ltmp135-Lfunc_begin8   ##     jumps to Ltmp135
	.byte	1                       ##   On action: 1
	.uleb128 Ltmp134-Lfunc_begin8   ## >> Call Site 5 <<
	.uleb128 Lfunc_end8-Ltmp134     ##   Call between Ltmp134 and Lfunc_end8
	.byte	0                       ##     has no landing pad
	.byte	0                       ##   On action: cleanup
Lcst_end8:
	.byte	1                       ## >> Action Record 1 <<
                                        ##   Catch TypeInfo 1
	.byte	0                       ##   No further actions
	.p2align	2
                                        ## >> Catch TypeInfos <<
	.long	0                       ## TypeInfo 1
Lttbase8:
	.p2align	2
                                        ## -- End function
	.section	__TEXT,__text,regular,pure_instructions
	.p2align	4, 0x90         ## -- Begin function _ZNSt3__1L9use_facetINS_5ctypeIcEEEERKT_RKNS_6localeE
__ZNSt3__1L9use_facetINS_5ctypeIcEEEERKT_RKNS_6localeE: ## @_ZNSt3__1L9use_facetINS_5ctypeIcEEEERKT_RKNS_6localeE
	.cfi_startproc
## %bb.0:
	pushq	%rbp
	.cfi_def_cfa_offset 16
	.cfi_offset %rbp, -16
	movq	%rsp, %rbp
	.cfi_def_cfa_register %rbp
	subq	$16, %rsp
	movq	__ZNSt3__15ctypeIcE2idE@GOTPCREL(%rip), %rsi
	movq	%rdi, -8(%rbp)
	movq	-8(%rbp), %rdi
	callq	__ZNKSt3__16locale9use_facetERNS0_2idE
	addq	$16, %rsp
	popq	%rbp
	retq
	.cfi_endproc
                                        ## -- End function
	.p2align	4, 0x90         ## -- Begin function _ZNKSt3__15ctypeIcE5widenEc
__ZNKSt3__15ctypeIcE5widenEc:           ## @_ZNKSt3__15ctypeIcE5widenEc
	.cfi_startproc
## %bb.0:
	pushq	%rbp
	.cfi_def_cfa_offset 16
	.cfi_offset %rbp, -16
	movq	%rsp, %rbp
	.cfi_def_cfa_register %rbp
	subq	$16, %rsp
	movb	%sil, %al
	movq	%rdi, -8(%rbp)
	movb	%al, -9(%rbp)
	movq	-8(%rbp), %rdi
	movb	-9(%rbp), %al
	movq	(%rdi), %rcx
	movsbl	%al, %esi
	callq	*56(%rcx)
	movsbl	%al, %eax
	addq	$16, %rsp
	popq	%rbp
	retq
	.cfi_endproc
                                        ## -- End function
	.p2align	4, 0x90         ## -- Begin function _ZNSt3__18ios_base8setstateEj
__ZNSt3__18ios_base8setstateEj:         ## @_ZNSt3__18ios_base8setstateEj
	.cfi_startproc
## %bb.0:
	pushq	%rbp
	.cfi_def_cfa_offset 16
	.cfi_offset %rbp, -16
	movq	%rsp, %rbp
	.cfi_def_cfa_register %rbp
	subq	$16, %rsp
	movq	%rdi, -8(%rbp)
	movl	%esi, -12(%rbp)
	movq	-8(%rbp), %rdi
	movl	32(%rdi), %esi
	orl	-12(%rbp), %esi
	callq	__ZNSt3__18ios_base5clearEj
	addq	$16, %rsp
	popq	%rbp
	retq
	.cfi_endproc
                                        ## -- End function
	.p2align	4, 0x90         ## -- Begin function _ZNKSt3__112basic_stringIcNS_11char_traitsIcEENS_9allocatorIcEEE13get_allocatorEv
__ZNKSt3__112basic_stringIcNS_11char_traitsIcEENS_9allocatorIcEEE13get_allocatorEv: ## @_ZNKSt3__112basic_stringIcNS_11char_traitsIcEENS_9allocatorIcEEE13get_allocatorEv
	.cfi_startproc
## %bb.0:
	pushq	%rbp
	.cfi_def_cfa_offset 16
	.cfi_offset %rbp, -16
	movq	%rsp, %rbp
	.cfi_def_cfa_register %rbp
	subq	$32, %rsp
	movq	%rdi, -16(%rbp)
	movq	-16(%rbp), %rdi
	callq	__ZNKSt3__112basic_stringIcNS_11char_traitsIcEENS_9allocatorIcEEE7__allocEv
	movq	%rax, -24(%rbp)         ## 8-byte Spill
	addq	$32, %rsp
	popq	%rbp
	retq
	.cfi_endproc
                                        ## -- End function
	.p2align	4, 0x90         ## -- Begin function _ZNSt3__112basic_stringIcNS_11char_traitsIcEENS_9allocatorIcEEEC1ERKS4_
__ZNSt3__112basic_stringIcNS_11char_traitsIcEENS_9allocatorIcEEEC1ERKS4_: ## @_ZNSt3__112basic_stringIcNS_11char_traitsIcEENS_9allocatorIcEEEC1ERKS4_
	.cfi_startproc
## %bb.0:
	pushq	%rbp
	.cfi_def_cfa_offset 16
	.cfi_offset %rbp, -16
	movq	%rsp, %rbp
	.cfi_def_cfa_register %rbp
	subq	$16, %rsp
	movq	%rdi, -8(%rbp)
	movq	%rsi, -16(%rbp)
	movq	-8(%rbp), %rdi
	movq	-16(%rbp), %rsi
	callq	__ZNSt3__112basic_stringIcNS_11char_traitsIcEENS_9allocatorIcEEEC2ERKS4_
	addq	$16, %rsp
	popq	%rbp
	retq
	.cfi_endproc
                                        ## -- End function
	.p2align	4, 0x90         ## -- Begin function _ZNKSt3__112basic_stringIcNS_11char_traitsIcEENS_9allocatorIcEEE7__allocEv
__ZNKSt3__112basic_stringIcNS_11char_traitsIcEENS_9allocatorIcEEE7__allocEv: ## @_ZNKSt3__112basic_stringIcNS_11char_traitsIcEENS_9allocatorIcEEE7__allocEv
	.cfi_startproc
## %bb.0:
	pushq	%rbp
	.cfi_def_cfa_offset 16
	.cfi_offset %rbp, -16
	movq	%rsp, %rbp
	.cfi_def_cfa_register %rbp
	subq	$16, %rsp
	movq	%rdi, -8(%rbp)
	movq	-8(%rbp), %rdi
	callq	__ZNKSt3__117__compressed_pairINS_12basic_stringIcNS_11char_traitsIcEENS_9allocatorIcEEE5__repES5_E6secondEv
	addq	$16, %rsp
	popq	%rbp
	retq
	.cfi_endproc
                                        ## -- End function
	.p2align	4, 0x90         ## -- Begin function _ZNKSt3__117__compressed_pairINS_12basic_stringIcNS_11char_traitsIcEENS_9allocatorIcEEE5__repES5_E6secondEv
__ZNKSt3__117__compressed_pairINS_12basic_stringIcNS_11char_traitsIcEENS_9allocatorIcEEE5__repES5_E6secondEv: ## @_ZNKSt3__117__compressed_pairINS_12basic_stringIcNS_11char_traitsIcEENS_9allocatorIcEEE5__repES5_E6secondEv
	.cfi_startproc
## %bb.0:
	pushq	%rbp
	.cfi_def_cfa_offset 16
	.cfi_offset %rbp, -16
	movq	%rsp, %rbp
	.cfi_def_cfa_register %rbp
	subq	$16, %rsp
	movq	%rdi, -8(%rbp)
	movq	-8(%rbp), %rdi
	callq	__ZNKSt3__122__compressed_pair_elemINS_9allocatorIcEELi1ELb1EE5__getEv
	addq	$16, %rsp
	popq	%rbp
	retq
	.cfi_endproc
                                        ## -- End function
	.p2align	4, 0x90         ## -- Begin function _ZNKSt3__122__compressed_pair_elemINS_9allocatorIcEELi1ELb1EE5__getEv
__ZNKSt3__122__compressed_pair_elemINS_9allocatorIcEELi1ELb1EE5__getEv: ## @_ZNKSt3__122__compressed_pair_elemINS_9allocatorIcEELi1ELb1EE5__getEv
	.cfi_startproc
## %bb.0:
	pushq	%rbp
	.cfi_def_cfa_offset 16
	.cfi_offset %rbp, -16
	movq	%rsp, %rbp
	.cfi_def_cfa_register %rbp
	movq	%rdi, -8(%rbp)
	movq	-8(%rbp), %rdi
	movq	%rdi, %rax
	popq	%rbp
	retq
	.cfi_endproc
                                        ## -- End function
	.p2align	4, 0x90         ## -- Begin function _ZNSt3__112basic_stringIcNS_11char_traitsIcEENS_9allocatorIcEEEC2ERKS4_
__ZNSt3__112basic_stringIcNS_11char_traitsIcEENS_9allocatorIcEEEC2ERKS4_: ## @_ZNSt3__112basic_stringIcNS_11char_traitsIcEENS_9allocatorIcEEEC2ERKS4_
	.cfi_startproc
## %bb.0:
	pushq	%rbp
	.cfi_def_cfa_offset 16
	.cfi_offset %rbp, -16
	movq	%rsp, %rbp
	.cfi_def_cfa_register %rbp
	subq	$48, %rsp
	movq	%rdi, -8(%rbp)
	movq	%rsi, -16(%rbp)
	movq	-8(%rbp), %rsi
	movq	%rsi, %rdi
	movq	%rsi, -40(%rbp)         ## 8-byte Spill
	callq	__ZNSt3__117__compressed_pairINS_12basic_stringIcNS_11char_traitsIcEENS_9allocatorIcEEE5__repES5_EC1ENS_12__second_tagES5_
	movq	-40(%rbp), %rdi         ## 8-byte Reload
	callq	__ZNSt3__112basic_stringIcNS_11char_traitsIcEENS_9allocatorIcEEE6__zeroEv
	addq	$48, %rsp
	popq	%rbp
	retq
	.cfi_endproc
                                        ## -- End function
	.p2align	4, 0x90         ## -- Begin function _ZNSt3__117__compressed_pairINS_12basic_stringIcNS_11char_traitsIcEENS_9allocatorIcEEE5__repES5_EC1ENS_12__second_tagES5_
__ZNSt3__117__compressed_pairINS_12basic_stringIcNS_11char_traitsIcEENS_9allocatorIcEEE5__repES5_EC1ENS_12__second_tagES5_: ## @_ZNSt3__117__compressed_pairINS_12basic_stringIcNS_11char_traitsIcEENS_9allocatorIcEEE5__repES5_EC1ENS_12__second_tagES5_
	.cfi_startproc
## %bb.0:
	pushq	%rbp
	.cfi_def_cfa_offset 16
	.cfi_offset %rbp, -16
	movq	%rsp, %rbp
	.cfi_def_cfa_register %rbp
	subq	$32, %rsp
	movq	%rdi, -24(%rbp)
	movq	-24(%rbp), %rdi
	callq	__ZNSt3__117__compressed_pairINS_12basic_stringIcNS_11char_traitsIcEENS_9allocatorIcEEE5__repES5_EC2ENS_12__second_tagES5_
	addq	$32, %rsp
	popq	%rbp
	retq
	.cfi_endproc
                                        ## -- End function
	.p2align	4, 0x90         ## -- Begin function _ZNSt3__112basic_stringIcNS_11char_traitsIcEENS_9allocatorIcEEE6__zeroEv
__ZNSt3__112basic_stringIcNS_11char_traitsIcEENS_9allocatorIcEEE6__zeroEv: ## @_ZNSt3__112basic_stringIcNS_11char_traitsIcEENS_9allocatorIcEEE6__zeroEv
	.cfi_startproc
## %bb.0:
	pushq	%rbp
	.cfi_def_cfa_offset 16
	.cfi_offset %rbp, -16
	movq	%rsp, %rbp
	.cfi_def_cfa_register %rbp
	subq	$32, %rsp
	movq	%rdi, -8(%rbp)
	movq	-8(%rbp), %rdi
	callq	__ZNSt3__117__compressed_pairINS_12basic_stringIcNS_11char_traitsIcEENS_9allocatorIcEEE5__repES5_E5firstEv
	movq	%rax, -16(%rbp)
	movl	$0, -20(%rbp)
LBB66_1:                                ## =>This Inner Loop Header: Depth=1
	cmpl	$3, -20(%rbp)
	jae	LBB66_4
## %bb.2:                               ##   in Loop: Header=BB66_1 Depth=1
	movq	-16(%rbp), %rax
	movl	-20(%rbp), %ecx
	movl	%ecx, %edx
	movq	$0, (%rax,%rdx,8)
## %bb.3:                               ##   in Loop: Header=BB66_1 Depth=1
	movl	-20(%rbp), %eax
	addl	$1, %eax
	movl	%eax, -20(%rbp)
	jmp	LBB66_1
LBB66_4:
	addq	$32, %rsp
	popq	%rbp
	retq
	.cfi_endproc
                                        ## -- End function
	.p2align	4, 0x90         ## -- Begin function _ZNSt3__117__compressed_pairINS_12basic_stringIcNS_11char_traitsIcEENS_9allocatorIcEEE5__repES5_EC2ENS_12__second_tagES5_
__ZNSt3__117__compressed_pairINS_12basic_stringIcNS_11char_traitsIcEENS_9allocatorIcEEE5__repES5_EC2ENS_12__second_tagES5_: ## @_ZNSt3__117__compressed_pairINS_12basic_stringIcNS_11char_traitsIcEENS_9allocatorIcEEE5__repES5_EC2ENS_12__second_tagES5_
	.cfi_startproc
## %bb.0:
	pushq	%rbp
	.cfi_def_cfa_offset 16
	.cfi_offset %rbp, -16
	movq	%rsp, %rbp
	.cfi_def_cfa_register %rbp
	subq	$64, %rsp
	movq	%rdi, -24(%rbp)
	movq	-24(%rbp), %rdi
	movq	%rdi, %rax
	movq	%rdi, -40(%rbp)         ## 8-byte Spill
	movq	%rax, %rdi
	callq	__ZNSt3__122__compressed_pair_elemINS_12basic_stringIcNS_11char_traitsIcEENS_9allocatorIcEEE5__repELi0ELb0EEC2Ev
	movq	-40(%rbp), %rax         ## 8-byte Reload
	leaq	-16(%rbp), %rdi
	movq	%rax, -48(%rbp)         ## 8-byte Spill
	callq	__ZNSt3__1L7forwardINS_9allocatorIcEEEERT_RNS_16remove_referenceIS3_E4typeE
	movq	-48(%rbp), %rdi         ## 8-byte Reload
	movq	%rax, -56(%rbp)         ## 8-byte Spill
	callq	__ZNSt3__122__compressed_pair_elemINS_9allocatorIcEELi1ELb1EEC2ES2_
	addq	$64, %rsp
	popq	%rbp
	retq
	.cfi_endproc
                                        ## -- End function
	.p2align	4, 0x90         ## -- Begin function _ZNSt3__1L7forwardINS_9allocatorIcEEEERT_RNS_16remove_referenceIS3_E4typeE
__ZNSt3__1L7forwardINS_9allocatorIcEEEERT_RNS_16remove_referenceIS3_E4typeE: ## @_ZNSt3__1L7forwardINS_9allocatorIcEEEERT_RNS_16remove_referenceIS3_E4typeE
	.cfi_startproc
## %bb.0:
	pushq	%rbp
	.cfi_def_cfa_offset 16
	.cfi_offset %rbp, -16
	movq	%rsp, %rbp
	.cfi_def_cfa_register %rbp
	movq	%rdi, -8(%rbp)
	movq	-8(%rbp), %rax
	popq	%rbp
	retq
	.cfi_endproc
                                        ## -- End function
	.p2align	4, 0x90         ## -- Begin function _ZNSt3__122__compressed_pair_elemINS_9allocatorIcEELi1ELb1EEC2ES2_
__ZNSt3__122__compressed_pair_elemINS_9allocatorIcEELi1ELb1EEC2ES2_: ## @_ZNSt3__122__compressed_pair_elemINS_9allocatorIcEELi1ELb1EEC2ES2_
	.cfi_startproc
## %bb.0:
	pushq	%rbp
	.cfi_def_cfa_offset 16
	.cfi_offset %rbp, -16
	movq	%rsp, %rbp
	.cfi_def_cfa_register %rbp
	subq	$32, %rsp
	movq	%rdi, -16(%rbp)
	leaq	-8(%rbp), %rdi
	callq	__ZNSt3__1L7forwardINS_9allocatorIcEEEERT_RNS_16remove_referenceIS3_E4typeE
	movq	%rax, -24(%rbp)         ## 8-byte Spill
	addq	$32, %rsp
	popq	%rbp
	retq
	.cfi_endproc
                                        ## -- End function
	.p2align	4, 0x90         ## -- Begin function _ZNSt3__117__compressed_pairINS_12basic_stringIcNS_11char_traitsIcEENS_9allocatorIcEEE5__repES5_E5firstEv
__ZNSt3__117__compressed_pairINS_12basic_stringIcNS_11char_traitsIcEENS_9allocatorIcEEE5__repES5_E5firstEv: ## @_ZNSt3__117__compressed_pairINS_12basic_stringIcNS_11char_traitsIcEENS_9allocatorIcEEE5__repES5_E5firstEv
	.cfi_startproc
## %bb.0:
	pushq	%rbp
	.cfi_def_cfa_offset 16
	.cfi_offset %rbp, -16
	movq	%rsp, %rbp
	.cfi_def_cfa_register %rbp
	subq	$16, %rsp
	movq	%rdi, -8(%rbp)
	movq	-8(%rbp), %rdi
	callq	__ZNSt3__122__compressed_pair_elemINS_12basic_stringIcNS_11char_traitsIcEENS_9allocatorIcEEE5__repELi0ELb0EE5__getEv
	addq	$16, %rsp
	popq	%rbp
	retq
	.cfi_endproc
                                        ## -- End function
	.p2align	4, 0x90         ## -- Begin function _ZNSt3__122__compressed_pair_elemINS_12basic_stringIcNS_11char_traitsIcEENS_9allocatorIcEEE5__repELi0ELb0EE5__getEv
__ZNSt3__122__compressed_pair_elemINS_12basic_stringIcNS_11char_traitsIcEENS_9allocatorIcEEE5__repELi0ELb0EE5__getEv: ## @_ZNSt3__122__compressed_pair_elemINS_12basic_stringIcNS_11char_traitsIcEENS_9allocatorIcEEE5__repELi0ELb0EE5__getEv
	.cfi_startproc
## %bb.0:
	pushq	%rbp
	.cfi_def_cfa_offset 16
	.cfi_offset %rbp, -16
	movq	%rsp, %rbp
	.cfi_def_cfa_register %rbp
	movq	%rdi, -8(%rbp)
	movq	-8(%rbp), %rax
	popq	%rbp
	retq
	.cfi_endproc
                                        ## -- End function
	.section	__TEXT,__cstring,cstring_literals
L_.str:                                 ## @.str
	.asciz	"drawTriangle(1)"

L_.str.1:                               ## @.str.1
	.asciz	"*\n"

L_.str.2:                               ## @.str.2
	.asciz	"drawTriangle(2)"

L_.str.3:                               ## @.str.3
	.space	1

L_.str.4:                               ## @.str.4
	.asciz	"drawTriangle(3)"

L_.str.5:                               ## @.str.5
	.asciz	" * \n***\n"

L_.str.6:                               ## @.str.6
	.asciz	"drawTriangle(5)"

L_.str.7:                               ## @.str.7
	.asciz	"  *  \n *** \n*****\n"

L_.str.8:                               ## @.str.8
	.asciz	"Test failed: "

L_.str.9:                               ## @.str.9
	.asciz	"Test passed: "

L_.str.10:                              ## @.str.10
	.asciz	"* "


.subsections_via_symbols
